

Microchip MPLAB XC8 Assembler V2.40 build 20220703182018 
                                                                                               Sat Feb 25 17:52:25 2023

Microchip MPLAB XC8 C Compiler v2.40 (Free license) build 20220703182018 Og1 
     1                           	processor	18F4620
     2                           	fnconf	rparam,??,?,0
     3                           	pagewidth 120
     4                           	opt	flic
     5                           	psect	idataCOMRAM,global,class=CODE,delta=1,noexec
     6                           	psect	cinit,global,reloc=2,class=CODE,delta=1
     7                           	psect	bssCOMRAM,global,class=COMRAM,space=1,delta=1,lowdata,noexec
     8                           	psect	dataCOMRAM,global,class=COMRAM,space=1,delta=1,lowdata,noexec
     9                           	psect	cstackCOMRAM,global,class=COMRAM,space=1,delta=1,lowdata,noexec
    10                           	psect	text0,global,reloc=2,class=CODE,delta=1
    11                           	psect	text1,global,reloc=2,class=CODE,delta=1
    12                           	psect	text2,global,reloc=2,class=CODE,delta=1
    13                           	psect	text3,global,reloc=2,class=CODE,delta=1
    14                           	psect	text4,global,reloc=2,class=CODE,delta=1
    15                           	psect	text5,global,reloc=2,class=CODE,delta=1
    16                           	psect	intsave_regs,global,class=BIGRAM,space=1,delta=1,noexec
    17                           	psect	rparam,global,class=COMRAM,space=1,delta=1,noexec
    18                           	psect	idloc,global,abs,ovrld,class=IDLOC,space=5,delta=1,noexec
    19                           	psect	config,global,abs,ovrld,class=CONFIG,space=4,delta=1,noexec
    20   000000                     
    21                           ; Version 2.40
    22                           ; Generated 17/11/2021 GMT
    23                           ; 
    24                           ; Copyright © 2021, Microchip Technology Inc. and its subsidiaries ("Microchip")
    25                           ; All rights reserved.
    26                           ; 
    27                           ; This software is developed by Microchip Technology Inc. and its subsidiaries ("Microch
      +                          ip").
    28                           ; 
    29                           ; Redistribution and use in source and binary forms, with or without modification, are
    30                           ; permitted provided that the following conditions are met:
    31                           ; 
    32                           ;     1. Redistributions of source code must retain the above copyright notice, this lis
      +                          t of
    33                           ;        conditions and the following disclaimer.
    34                           ; 
    35                           ;     2. Redistributions in binary form must reproduce the above copyright notice, this 
      +                          list
    36                           ;        of conditions and the following disclaimer in the documentation and/or other
    37                           ;        materials provided with the distribution. Publication is not required when
    38                           ;        this file is used in an embedded application.
    39                           ; 
    40                           ;     3. Microchip's name may not be used to endorse or promote products derived from th
      +                          is
    41                           ;        software without specific prior written permission.
    42                           ; 
    43                           ; THIS SOFTWARE IS PROVIDED BY MICROCHIP "AS IS" AND ANY EXPRESS OR IMPLIED WARRANTIES,
    44                           ; INCLUDING, BUT NOT LIMITED TO, THE IMPLIED WARRANTIES OF MERCHANTABILITY AND FITNESS F
      +                          OR
    45                           ; PURPOSE ARE DISCLAIMED.  IN NO EVENT SHALL MICROCHIP BE LIABLE FOR ANY DIRECT, INDIREC
      +                          T,
    46                           ; INCIDENTAL, SPECIAL, EXEMPLARY, OR CONSEQUENTIAL DAMAGES (INCLUDING BUT NOT LIMITED TO
    47                           ; PROCUREMENT OF SUBSTITUTE GOODS OR SERVICES; LOSS OF USE, DATA OR PROFITS; OR BUSINESS
    48                           ; INTERRUPTION) HOWSOEVER CAUSED AND ON ANY THEORY OF LIABILITY, WHETHER IN CONTRACT, ST
      +                          RICT
    49                           ; LIABILITY, OR TORT (INCLUDING NEGLIGENCE OR OTHERWISE) ARISING IN ANY WAY OUT OF THE U
      +                          SE OF
    50                           ; THIS SOFTWARE, EVEN IF ADVISED OF THE POSSIBILITY OF SUCH DAMAGE.
    51                           ; 
    52                           ; 
    53                           ; Code-generator required, PIC18F4620 Definitions
    54                           ; 
    55                           ; SFR Addresses
    56   000000                     
    57                           	psect	idataCOMRAM
    58   00F9E0                     __pidataCOMRAM:
    59                           	callstack 0
    60                           
    61                           ;initializer for _lat_registers
    62   00F9E0  89                 	db	137
    63   00F9E1  0F                 	db	15
    64   00F9E2  8A                 	db	138
    65   00F9E3  0F                 	db	15
    66   00F9E4  8B                 	db	139
    67   00F9E5  0F                 	db	15
    68   00F9E6  8C                 	db	140
    69   00F9E7  0F                 	db	15
    70   00F9E8  8D                 	db	141
    71   00F9E9  0F                 	db	15
    72                           
    73                           ;initializer for _port_registers
    74   00F9EA  80                 	db	128
    75   00F9EB  0F                 	db	15
    76   00F9EC  81                 	db	129
    77   00F9ED  0F                 	db	15
    78   00F9EE  82                 	db	130
    79   00F9EF  0F                 	db	15
    80   00F9F0  83                 	db	131
    81   00F9F1  0F                 	db	15
    82   00F9F2  84                 	db	132
    83   00F9F3  0F                 	db	15
    84                           
    85                           ;initializer for _tris_registers
    86   00F9F4  92                 	db	146
    87   00F9F5  0F                 	db	15
    88   00F9F6  93                 	db	147
    89   00F9F7  0F                 	db	15
    90   00F9F8  94                 	db	148
    91   00F9F9  0F                 	db	15
    92   00F9FA  95                 	db	149
    93   00F9FB  0F                 	db	15
    94   00F9FC  96                 	db	150
    95   00F9FD  0F                 	db	15
    96                           
    97                           ;initializer for _Led4
    98   00F9FE  1A                 	db	26
    99                           
   100                           ;initializer for _Led3
   101   00F9FF  12                 	db	18
   102                           
   103                           ;initializer for _Led2
   104   00FA00  0A                 	db	10
   105                           
   106                           ;initializer for _Led1
   107   00FA01  02                 	db	2
   108   000000                     _LATA	set	3977
   109   000000                     _PORTE	set	3972
   110   000000                     _PORTD	set	3971
   111   000000                     _PORTC	set	3970
   112   000000                     _PORTB	set	3969
   113   000000                     _PORTA	set	3968
   114   000000                     _TRISA	set	3986
   115   000000                     _TRISE	set	3990
   116   000000                     _TRISD	set	3989
   117   000000                     _TRISC	set	3988
   118   000000                     _TRISB	set	3987
   119   000000                     _LATE	set	3981
   120   000000                     _LATD	set	3980
   121   000000                     _LATC	set	3979
   122   000000                     _LATB	set	3978
   123                           
   124                           ; #config settings
   125                           
   126                           	psect	cinit
   127   00FA02                     __pcinit:
   128                           	callstack 0
   129   00FA02                     start_initialization:
   130                           	callstack 0
   131   00FA02                     __initialization:
   132                           	callstack 0
   133                           
   134                           ; Initialize objects allocated to COMRAM (34 bytes)
   135                           ; load TBLPTR registers with __pidataCOMRAM
   136   00FA02  0EE0               	movlw	low __pidataCOMRAM
   137   00FA04  6EF6               	movwf	tblptrl,c
   138   00FA06  0EF9               	movlw	high __pidataCOMRAM
   139   00FA08  6EF7               	movwf	tblptrh,c
   140   00FA0A  0E00               	movlw	low (__pidataCOMRAM shr (0+16))
   141   00FA0C  6EF8               	movwf	tblptru,c
   142   00FA0E  EE00  F001         	lfsr	0,__pdataCOMRAM
   143   00FA12  EE10 F022          	lfsr	1,34
   144   00FA16                     copy_data0:
   145   00FA16  0009               	tblrd		*+
   146   00FA18  CFF5 FFEE          	movff	tablat,postinc0
   147   00FA1C  50E5               	movf	postdec1,w,c
   148   00FA1E  50E1               	movf	fsr1l,w,c
   149   00FA20  E1FA               	bnz	copy_data0
   150                           
   151                           ; Clear objects allocated to COMRAM (4 bytes)
   152   00FA22  6A37               	clrf	(__pbssCOMRAM+3)& (0+255),c
   153   00FA24  6A36               	clrf	(__pbssCOMRAM+2)& (0+255),c
   154   00FA26  6A35               	clrf	(__pbssCOMRAM+1)& (0+255),c
   155   00FA28  6A34               	clrf	__pbssCOMRAM& (0+255),c
   156   00FA2A                     end_of_initialization:
   157                           	callstack 0
   158   00FA2A                     __end_of__initialization:
   159                           	callstack 0
   160   00FA2A  0E00               	movlw	low (__Lmediumconst shr (0+16))
   161   00FA2C  6EF8               	movwf	tblptru,c
   162   00FA2E  0100               	movlb	0
   163   00FA30  EF7C  F07D         	goto	_main	;jump to C main() function
   164                           
   165                           	psect	bssCOMRAM
   166   000034                     __pbssCOMRAM:
   167                           	callstack 0
   168   000034                     led_toggle_state@F2894:
   169                           	callstack 0
   170   000034                     	ds	1
   171   000035                     led_turn_off@F2889:
   172                           	callstack 0
   173   000035                     	ds	1
   174   000036                     led_turn_on@F2884:
   175                           	callstack 0
   176   000036                     	ds	1
   177   000037                     led_init@F2879:
   178                           	callstack 0
   179   000037                     	ds	1
   180                           
   181                           	psect	dataCOMRAM
   182   000001                     __pdataCOMRAM:
   183                           	callstack 0
   184   000001                     _lat_registers:
   185                           	callstack 0
   186   000001                     	ds	10
   187   00000B                     _port_registers:
   188                           	callstack 0
   189   00000B                     	ds	10
   190   000015                     _tris_registers:
   191                           	callstack 0
   192   000015                     	ds	10
   193   00001F                     _Led4:
   194                           	callstack 0
   195   00001F                     	ds	1
   196   000020                     _Led3:
   197                           	callstack 0
   198   000020                     	ds	1
   199   000021                     _Led2:
   200                           	callstack 0
   201   000021                     	ds	1
   202   000022                     _Led1:
   203                           	callstack 0
   204   000022                     	ds	1
   205                           
   206                           	psect	cstackCOMRAM
   207   000023                     __pcstackCOMRAM:
   208                           	callstack 0
   209   000023                     gpio_pin_direction_init@_pin_config:
   210                           	callstack 0
   211   000023                     gpio_pin_write_logic@_pin_config:
   212                           	callstack 0
   213                           
   214                           ; 2 bytes @ 0x0
   215   000023                     	ds	2
   216   000025                     ??_gpio_pin_direction_init:
   217   000025                     gpio_pin_write_logic@logic:
   218                           	callstack 0
   219                           
   220                           ; 1 bytes @ 0x2
   221   000025                     	ds	1
   222   000026                     ??_gpio_pin_write_logic:
   223                           
   224                           ; 1 bytes @ 0x3
   225   000026                     	ds	5
   226   00002B                     gpio_pin_direction_init@ret:
   227                           	callstack 0
   228                           
   229                           ; 1 bytes @ 0x8
   230   00002B                     	ds	1
   231   00002C                     gpio_pin_write_logic@ret:
   232                           	callstack 0
   233   00002C                     led_init@led:
   234                           	callstack 0
   235                           
   236                           ; 2 bytes @ 0x9
   237   00002C                     	ds	1
   238   00002D                     led_turn_on@led:
   239                           	callstack 0
   240   00002D                     led_turn_off@led:
   241                           	callstack 0
   242                           
   243                           ; 2 bytes @ 0xA
   244   00002D                     	ds	1
   245   00002E                     ??_led_init:
   246                           
   247                           ; 1 bytes @ 0xB
   248   00002E                     	ds	1
   249   00002F                     ??_led_turn_on:
   250   00002F                     ??_led_turn_off:
   251   00002F                     led_init@ret:
   252                           	callstack 0
   253                           
   254                           ; 1 bytes @ 0xC
   255   00002F                     	ds	1
   256   000030                     led_init@Pin_obj:
   257                           	callstack 0
   258   000030                     led_turn_on@ret:
   259                           	callstack 0
   260   000030                     led_turn_off@ret:
   261                           	callstack 0
   262                           
   263                           ; 1 bytes @ 0xD
   264   000030                     	ds	1
   265   000031                     led_turn_on@Pin_obj:
   266                           	callstack 0
   267   000031                     led_turn_off@Pin_obj:
   268                           	callstack 0
   269                           
   270                           ; 1 bytes @ 0xE
   271   000031                     	ds	1
   272   000032                     ??_main:
   273                           
   274                           ; 1 bytes @ 0xF
   275   000032                     	ds	2
   276                           
   277 ;;
   278 ;;Main: autosize = 0, tempsize = 2, incstack = 0, save=0
   279 ;;
   280 ;; *************** function _main *****************
   281 ;; Defined at:
   282 ;;		line 29 in file "Application.c"
   283 ;; Parameters:    Size  Location     Type
   284 ;;		None
   285 ;; Auto vars:     Size  Location     Type
   286 ;;  ret             1    0        unsigned char 
   287 ;; Return value:  Size  Location     Type
   288 ;;                  2  203[None  ] int 
   289 ;; Registers used:
   290 ;;		wreg, fsr2l, fsr2h, status,2, status,0, prodl, prodh, cstack
   291 ;; Tracked objects:
   292 ;;		On entry : 0/0
   293 ;;		On exit  : 0/0
   294 ;;		Unchanged: 0/0
   295 ;; Data sizes:     COMRAM   BANK0   BANK1   BANK2   BANK3   BANK4   BANK5   BANK6   BANK7   BANK8   BANK9  BANK10  BANK1
      +1  BANK12  BANK13  BANK14  BANK15
   296 ;;      Params:         0       0       0       0       0       0       0       0       0       0       0       0       
      +0       0       0       0       0
   297 ;;      Locals:         0       0       0       0       0       0       0       0       0       0       0       0       
      +0       0       0       0       0
   298 ;;      Temps:          2       0       0       0       0       0       0       0       0       0       0       0       
      +0       0       0       0       0
   299 ;;      Totals:         2       0       0       0       0       0       0       0       0       0       0       0       
      +0       0       0       0       0
   300 ;;Total ram usage:        2 bytes
   301 ;; Hardware stack levels required when called: 2
   302 ;; This function calls:
   303 ;;		_led_init
   304 ;;		_led_turn_off
   305 ;;		_led_turn_on
   306 ;; This function is called by:
   307 ;;		Startup code after reset
   308 ;; This function uses a non-reentrant model
   309 ;;
   310                           
   311                           	psect	text0
   312   00FAF8                     __ptext0:
   313                           	callstack 0
   314   00FAF8                     _main:
   315                           	callstack 29
   316   00FAF8  0E22               	movlw	low _Led1
   317   00FAFA  6E2C               	movwf	led_init@led^0,c
   318   00FAFC  0E00               	movlw	high _Led1
   319   00FAFE  6E2D               	movwf	(led_init@led+1)^0,c
   320   00FB00  EC1A  F07D         	call	_led_init	;wreg free
   321   00FB04  0E21               	movlw	low _Led2
   322   00FB06  6E2C               	movwf	led_init@led^0,c
   323   00FB08  0E00               	movlw	high _Led2
   324   00FB0A  6E2D               	movwf	(led_init@led+1)^0,c
   325   00FB0C  EC1A  F07D         	call	_led_init	;wreg free
   326   00FB10  0E20               	movlw	low _Led3
   327   00FB12  6E2C               	movwf	led_init@led^0,c
   328   00FB14  0E00               	movlw	high _Led3
   329   00FB16  6E2D               	movwf	(led_init@led+1)^0,c
   330   00FB18  EC1A  F07D         	call	_led_init	;wreg free
   331   00FB1C  0E1F               	movlw	low _Led4
   332   00FB1E  6E2C               	movwf	led_init@led^0,c
   333   00FB20  0E00               	movlw	high _Led4
   334   00FB22  6E2D               	movwf	(led_init@led+1)^0,c
   335   00FB24  EC1A  F07D         	call	_led_init	;wreg free
   336   00FB28                     l1347:
   337   00FB28  0E22               	movlw	low _Led1
   338   00FB2A  6E2D               	movwf	led_turn_on@led^0,c
   339   00FB2C  0E00               	movlw	high _Led1
   340   00FB2E  6E2E               	movwf	(led_turn_on@led+1)^0,c
   341   00FB30  EC42  F07E         	call	_led_turn_on	;wreg free
   342   00FB34  0E21               	movlw	low _Led2
   343   00FB36  6E2D               	movwf	led_turn_off@led^0,c
   344   00FB38  0E00               	movlw	high _Led2
   345   00FB3A  6E2E               	movwf	(led_turn_off@led+1)^0,c
   346   00FB3C  ECDE  F07D         	call	_led_turn_off	;wreg free
   347   00FB40  0E20               	movlw	low _Led3
   348   00FB42  6E2D               	movwf	led_turn_on@led^0,c
   349   00FB44  0E00               	movlw	high _Led3
   350   00FB46  6E2E               	movwf	(led_turn_on@led+1)^0,c
   351   00FB48  EC42  F07E         	call	_led_turn_on	;wreg free
   352   00FB4C  0E1F               	movlw	low _Led4
   353   00FB4E  6E2D               	movwf	led_turn_off@led^0,c
   354   00FB50  0E00               	movlw	high _Led4
   355   00FB52  6E2E               	movwf	(led_turn_off@led+1)^0,c
   356   00FB54  ECDE  F07D         	call	_led_turn_off	;wreg free
   357   00FB58                     
   358                           ;Application.c: 41:         _delay((unsigned long)((500)*(4000000UL/4000.0)));
   359   00FB58  0E03               	movlw	3
   360   00FB5A  6E33               	movwf	(??_main+1)^0,c
   361   00FB5C  0E8A               	movlw	138
   362   00FB5E  6E32               	movwf	??_main^0,c
   363   00FB60  0E56               	movlw	86
   364   00FB62                     u807:
   365   00FB62  2EE8               	decfsz	wreg,f,c
   366   00FB64  D7FE               	bra	u807
   367   00FB66  2E32               	decfsz	??_main^0,f,c
   368   00FB68  D7FC               	bra	u807
   369   00FB6A  2E33               	decfsz	(??_main+1)^0,f,c
   370   00FB6C  D7FA               	bra	u807
   371   00FB6E  0E22               	movlw	low _Led1
   372   00FB70  6E2D               	movwf	led_turn_off@led^0,c
   373   00FB72  0E00               	movlw	high _Led1
   374   00FB74  6E2E               	movwf	(led_turn_off@led+1)^0,c
   375   00FB76  ECDE  F07D         	call	_led_turn_off	;wreg free
   376   00FB7A  0E21               	movlw	low _Led2
   377   00FB7C  6E2D               	movwf	led_turn_on@led^0,c
   378   00FB7E  0E00               	movlw	high _Led2
   379   00FB80  6E2E               	movwf	(led_turn_on@led+1)^0,c
   380   00FB82  EC42  F07E         	call	_led_turn_on	;wreg free
   381   00FB86  0E20               	movlw	low _Led3
   382   00FB88  6E2D               	movwf	led_turn_off@led^0,c
   383   00FB8A  0E00               	movlw	high _Led3
   384   00FB8C  6E2E               	movwf	(led_turn_off@led+1)^0,c
   385   00FB8E  ECDE  F07D         	call	_led_turn_off	;wreg free
   386   00FB92  0E1F               	movlw	low _Led4
   387   00FB94  6E2D               	movwf	led_turn_on@led^0,c
   388   00FB96  0E00               	movlw	high _Led4
   389   00FB98  6E2E               	movwf	(led_turn_on@led+1)^0,c
   390   00FB9A  EC42  F07E         	call	_led_turn_on	;wreg free
   391   00FB9E                     
   392                           ;Application.c: 46:         _delay((unsigned long)((500)*(4000000UL/4000.0)));
   393   00FB9E  0E03               	movlw	3
   394   00FBA0  6E33               	movwf	(??_main+1)^0,c
   395   00FBA2  0E8A               	movlw	138
   396   00FBA4  6E32               	movwf	??_main^0,c
   397   00FBA6  0E56               	movlw	86
   398   00FBA8                     u817:
   399   00FBA8  2EE8               	decfsz	wreg,f,c
   400   00FBAA  D7FE               	bra	u817
   401   00FBAC  2E32               	decfsz	??_main^0,f,c
   402   00FBAE  D7FC               	bra	u817
   403   00FBB0  2E33               	decfsz	(??_main+1)^0,f,c
   404   00FBB2  D7FA               	bra	u817
   405   00FBB4  EF94  F07D         	goto	l1347
   406   00FBB8  EF00  F000         	goto	start
   407   00FBBC                     __end_of_main:
   408                           	callstack 0
   409                           
   410 ;; *************** function _led_turn_on *****************
   411 ;; Defined at:
   412 ;;		line 48 in file "ECU_LAYER/LED/ECU_LED.c"
   413 ;; Parameters:    Size  Location     Type
   414 ;;  led             2   10[COMRAM] PTR const struct .
   415 ;;		 -> Led4(1), Led3(1), Led2(1), Led1(1), 
   416 ;; Auto vars:     Size  Location     Type
   417 ;;  Pin_obj         1   14[COMRAM] struct .
   418 ;;  ret             1   13[COMRAM] unsigned char 
   419 ;; Return value:  Size  Location     Type
   420 ;;                  1    wreg      unsigned char 
   421 ;; Registers used:
   422 ;;		wreg, fsr2l, fsr2h, status,2, status,0, prodl, prodh, cstack
   423 ;; Tracked objects:
   424 ;;		On entry : 0/0
   425 ;;		On exit  : 0/0
   426 ;;		Unchanged: 0/0
   427 ;; Data sizes:     COMRAM   BANK0   BANK1   BANK2   BANK3   BANK4   BANK5   BANK6   BANK7   BANK8   BANK9  BANK10  BANK1
      +1  BANK12  BANK13  BANK14  BANK15
   428 ;;      Params:         2       0       0       0       0       0       0       0       0       0       0       0       
      +0       0       0       0       0
   429 ;;      Locals:         2       0       0       0       0       0       0       0       0       0       0       0       
      +0       0       0       0       0
   430 ;;      Temps:          1       0       0       0       0       0       0       0       0       0       0       0       
      +0       0       0       0       0
   431 ;;      Totals:         5       0       0       0       0       0       0       0       0       0       0       0       
      +0       0       0       0       0
   432 ;;Total ram usage:        5 bytes
   433 ;; Hardware stack levels used: 1
   434 ;; Hardware stack levels required when called: 1
   435 ;; This function calls:
   436 ;;		_gpio_pin_write_logic
   437 ;; This function is called by:
   438 ;;		_main
   439 ;; This function uses a non-reentrant model
   440 ;;
   441                           
   442                           	psect	text1
   443   00FC84                     __ptext1:
   444                           	callstack 0
   445   00FC84                     _led_turn_on:
   446                           	callstack 29
   447   00FC84                     
   448                           ;ECU_LAYER/LED/ECU_LED.c: 49:     Std_ReturnType ret = (Std_ReturnType)0x01 ;
   449   00FC84  0E01               	movlw	1
   450   00FC86  6E30               	movwf	led_turn_on@ret^0,c
   451   00FC88                     
   452                           ;ECU_LAYER/LED/ECU_LED.c: 50:     if(((void*)0) == led)
   453   00FC88  502D               	movf	led_turn_on@led^0,w,c
   454   00FC8A  102E               	iorwf	(led_turn_on@led+1)^0,w,c
   455   00FC8C  A4D8               	btfss	status,2,c
   456   00FC8E  EF4B  F07E         	goto	u691
   457   00FC92  EF4D  F07E         	goto	u690
   458   00FC96                     u691:
   459   00FC96  EF51  F07E         	goto	l1279
   460   00FC9A                     u690:
   461   00FC9A                     l1277:
   462                           
   463                           ;ECU_LAYER/LED/ECU_LED.c: 51:     {;ECU_LAYER/LED/ECU_LED.c: 52:        ret = (Std_Retur
      +                          nType)0x00 ;
   464   00FC9A  0E00               	movlw	0
   465   00FC9C  6E30               	movwf	led_turn_on@ret^0,c
   466                           
   467                           ;ECU_LAYER/LED/ECU_LED.c: 53:     }
   468   00FC9E  EFA4  F07E         	goto	l1293
   469   00FCA2                     l1279:
   470   00FCA2  C02D  FFD9         	movff	led_turn_on@led,fsr2l
   471   00FCA6  C02E  FFDA         	movff	led_turn_on@led+1,fsr2h
   472   00FCAA  30DF               	rrcf	223,w,c
   473   00FCAC  32E8               	rrcf	wreg,f,c
   474   00FCAE  32E8               	rrcf	wreg,f,c
   475   00FCB0  0B07               	andlw	7
   476   00FCB2  6E2F               	movwf	??_led_turn_on^0,c
   477   00FCB4  0E08               	movlw	8
   478   00FCB6  602F               	cpfslt	??_led_turn_on^0,c
   479   00FCB8  EF60  F07E         	goto	u701
   480   00FCBC  EF62  F07E         	goto	u700
   481   00FCC0                     u701:
   482   00FCC0  EF4D  F07E         	goto	l1277
   483   00FCC4                     u700:
   484   00FCC4  C02D  FFD9         	movff	led_turn_on@led,fsr2l
   485   00FCC8  C02E  FFDA         	movff	led_turn_on@led+1,fsr2h
   486   00FCCC  50DF               	movf	223,w,c
   487   00FCCE  0B07               	andlw	7
   488   00FCD0  6E2F               	movwf	??_led_turn_on^0,c
   489   00FCD2  0E03               	movlw	3
   490   00FCD4  642F               	cpfsgt	??_led_turn_on^0,c
   491   00FCD6  EF6F  F07E         	goto	u711
   492   00FCDA  EF71  F07E         	goto	u710
   493   00FCDE                     u711:
   494   00FCDE  EF73  F07E         	goto	l22
   495   00FCE2                     u710:
   496   00FCE2  EF4D  F07E         	goto	l1277
   497   00FCE6                     l22:
   498                           
   499                           ;ECU_LAYER/LED/ECU_LED.c: 59:     {;ECU_LAYER/LED/ECU_LED.c: 60:          pinConfig_t Pi
      +                          n_obj = {
   500   00FCE6  C036  F031         	movff	led_turn_on@F2884,led_turn_on@Pin_obj
   501   00FCEA  C02D  FFD9         	movff	led_turn_on@led,fsr2l
   502   00FCEE  C02E  FFDA         	movff	led_turn_on@led+1,fsr2h
   503   00FCF2  50DF               	movf	223,w,c
   504   00FCF4  0B07               	andlw	7
   505   00FCF6  6E2F               	movwf	??_led_turn_on^0,c
   506   00FCF8  5031               	movf	led_turn_on@Pin_obj^0,w,c
   507   00FCFA  182F               	xorwf	??_led_turn_on^0,w,c
   508   00FCFC  0BF8               	andlw	-8
   509   00FCFE  182F               	xorwf	??_led_turn_on^0,w,c
   510   00FD00  6E31               	movwf	led_turn_on@Pin_obj^0,c
   511   00FD02  C02D  FFD9         	movff	led_turn_on@led,fsr2l
   512   00FD06  C02E  FFDA         	movff	led_turn_on@led+1,fsr2h
   513   00FD0A  30DF               	rrcf	223,w,c
   514   00FD0C  32E8               	rrcf	wreg,f,c
   515   00FD0E  32E8               	rrcf	wreg,f,c
   516   00FD10  0B07               	andlw	7
   517   00FD12  6E2F               	movwf	??_led_turn_on^0,c
   518   00FD14  462F               	rlncf	??_led_turn_on^0,f,c
   519   00FD16  462F               	rlncf	??_led_turn_on^0,f,c
   520   00FD18  462F               	rlncf	??_led_turn_on^0,f,c
   521   00FD1A  5031               	movf	led_turn_on@Pin_obj^0,w,c
   522   00FD1C  182F               	xorwf	??_led_turn_on^0,w,c
   523   00FD1E  0BC7               	andlw	-57
   524   00FD20  182F               	xorwf	??_led_turn_on^0,w,c
   525   00FD22  6E31               	movwf	led_turn_on@Pin_obj^0,c
   526   00FD24  9C31               	bcf	led_turn_on@Pin_obj^0,6,c
   527   00FD26  C02D  FFD9         	movff	led_turn_on@led,fsr2l
   528   00FD2A  C02E  FFDA         	movff	led_turn_on@led+1,fsr2h
   529   00FD2E  ACDF               	btfss	indf2,6,c
   530   00FD30  D002               	bra	u725
   531   00FD32  8E31               	bsf	led_turn_on@Pin_obj^0,7,c
   532   00FD34  D001               	bra	u727
   533   00FD36                     u725:
   534   00FD36  9E31               	bcf	led_turn_on@Pin_obj^0,7,c
   535   00FD38                     u727:
   536   00FD38                     
   537                           ;ECU_LAYER/LED/ECU_LED.c: 66:         gpio_pin_write_logic(&Pin_obj,GPIO_HIGH);
   538   00FD38  0E31               	movlw	low led_turn_on@Pin_obj
   539   00FD3A  6E23               	movwf	gpio_pin_write_logic@_pin_config^0,c
   540   00FD3C  0E00               	movlw	high led_turn_on@Pin_obj
   541   00FD3E  6E24               	movwf	(gpio_pin_write_logic@_pin_config+1)^0,c
   542   00FD40  0E01               	movlw	1
   543   00FD42  6E25               	movwf	gpio_pin_write_logic@logic^0,c
   544   00FD44  ECA6  F07E         	call	_gpio_pin_write_logic	;wreg free
   545   00FD48                     l1293:
   546                           
   547                           ;ECU_LAYER/LED/ECU_LED.c: 68:     return ret ;
   548   00FD48  5030               	movf	led_turn_on@ret^0,w,c
   549   00FD4A  0012               	return		;funcret
   550   00FD4C                     __end_of_led_turn_on:
   551                           	callstack 0
   552                           
   553 ;; *************** function _led_turn_off *****************
   554 ;; Defined at:
   555 ;;		line 79 in file "ECU_LAYER/LED/ECU_LED.c"
   556 ;; Parameters:    Size  Location     Type
   557 ;;  led             2   10[COMRAM] PTR const struct .
   558 ;;		 -> Led4(1), Led3(1), Led2(1), Led1(1), 
   559 ;; Auto vars:     Size  Location     Type
   560 ;;  Pin_obj         1   14[COMRAM] struct .
   561 ;;  ret             1   13[COMRAM] unsigned char 
   562 ;; Return value:  Size  Location     Type
   563 ;;                  1    wreg      unsigned char 
   564 ;; Registers used:
   565 ;;		wreg, fsr2l, fsr2h, status,2, status,0, prodl, prodh, cstack
   566 ;; Tracked objects:
   567 ;;		On entry : 0/0
   568 ;;		On exit  : 0/0
   569 ;;		Unchanged: 0/0
   570 ;; Data sizes:     COMRAM   BANK0   BANK1   BANK2   BANK3   BANK4   BANK5   BANK6   BANK7   BANK8   BANK9  BANK10  BANK1
      +1  BANK12  BANK13  BANK14  BANK15
   571 ;;      Params:         2       0       0       0       0       0       0       0       0       0       0       0       
      +0       0       0       0       0
   572 ;;      Locals:         2       0       0       0       0       0       0       0       0       0       0       0       
      +0       0       0       0       0
   573 ;;      Temps:          1       0       0       0       0       0       0       0       0       0       0       0       
      +0       0       0       0       0
   574 ;;      Totals:         5       0       0       0       0       0       0       0       0       0       0       0       
      +0       0       0       0       0
   575 ;;Total ram usage:        5 bytes
   576 ;; Hardware stack levels used: 1
   577 ;; Hardware stack levels required when called: 1
   578 ;; This function calls:
   579 ;;		_gpio_pin_write_logic
   580 ;; This function is called by:
   581 ;;		_main
   582 ;; This function uses a non-reentrant model
   583 ;;
   584                           
   585                           	psect	text2
   586   00FBBC                     __ptext2:
   587                           	callstack 0
   588   00FBBC                     _led_turn_off:
   589                           	callstack 29
   590   00FBBC                     
   591                           ;ECU_LAYER/LED/ECU_LED.c: 80:     Std_ReturnType ret = (Std_ReturnType)0x01 ;
   592   00FBBC  0E01               	movlw	1
   593   00FBBE  6E30               	movwf	led_turn_off@ret^0,c
   594   00FBC0                     
   595                           ;ECU_LAYER/LED/ECU_LED.c: 81:     if(((void*)0) == led)
   596   00FBC0  502D               	movf	led_turn_off@led^0,w,c
   597   00FBC2  102E               	iorwf	(led_turn_off@led+1)^0,w,c
   598   00FBC4  A4D8               	btfss	status,2,c
   599   00FBC6  EFE7  F07D         	goto	u731
   600   00FBCA  EFE9  F07D         	goto	u730
   601   00FBCE                     u731:
   602   00FBCE  EFED  F07D         	goto	l1303
   603   00FBD2                     u730:
   604   00FBD2                     l1301:
   605                           
   606                           ;ECU_LAYER/LED/ECU_LED.c: 82:     {;ECU_LAYER/LED/ECU_LED.c: 83:        ret = (Std_Retur
      +                          nType)0x00 ;
   607   00FBD2  0E00               	movlw	0
   608   00FBD4  6E30               	movwf	led_turn_off@ret^0,c
   609                           
   610                           ;ECU_LAYER/LED/ECU_LED.c: 84:     }
   611   00FBD6  EF40  F07E         	goto	l1317
   612   00FBDA                     l1303:
   613   00FBDA  C02D  FFD9         	movff	led_turn_off@led,fsr2l
   614   00FBDE  C02E  FFDA         	movff	led_turn_off@led+1,fsr2h
   615   00FBE2  30DF               	rrcf	223,w,c
   616   00FBE4  32E8               	rrcf	wreg,f,c
   617   00FBE6  32E8               	rrcf	wreg,f,c
   618   00FBE8  0B07               	andlw	7
   619   00FBEA  6E2F               	movwf	??_led_turn_off^0,c
   620   00FBEC  0E08               	movlw	8
   621   00FBEE  602F               	cpfslt	??_led_turn_off^0,c
   622   00FBF0  EFFC  F07D         	goto	u741
   623   00FBF4  EFFE  F07D         	goto	u740
   624   00FBF8                     u741:
   625   00FBF8  EFE9  F07D         	goto	l1301
   626   00FBFC                     u740:
   627   00FBFC  C02D  FFD9         	movff	led_turn_off@led,fsr2l
   628   00FC00  C02E  FFDA         	movff	led_turn_off@led+1,fsr2h
   629   00FC04  50DF               	movf	223,w,c
   630   00FC06  0B07               	andlw	7
   631   00FC08  6E2F               	movwf	??_led_turn_off^0,c
   632   00FC0A  0E03               	movlw	3
   633   00FC0C  642F               	cpfsgt	??_led_turn_off^0,c
   634   00FC0E  EF0B  F07E         	goto	u751
   635   00FC12  EF0D  F07E         	goto	u750
   636   00FC16                     u751:
   637   00FC16  EF0F  F07E         	goto	l33
   638   00FC1A                     u750:
   639   00FC1A  EFE9  F07D         	goto	l1301
   640   00FC1E                     l33:
   641                           
   642                           ;ECU_LAYER/LED/ECU_LED.c: 90:     {;ECU_LAYER/LED/ECU_LED.c: 91:         pinConfig_t Pin
      +                          _obj = {
   643   00FC1E  C035  F031         	movff	led_turn_off@F2889,led_turn_off@Pin_obj
   644   00FC22  C02D  FFD9         	movff	led_turn_off@led,fsr2l
   645   00FC26  C02E  FFDA         	movff	led_turn_off@led+1,fsr2h
   646   00FC2A  50DF               	movf	223,w,c
   647   00FC2C  0B07               	andlw	7
   648   00FC2E  6E2F               	movwf	??_led_turn_off^0,c
   649   00FC30  5031               	movf	led_turn_off@Pin_obj^0,w,c
   650   00FC32  182F               	xorwf	??_led_turn_off^0,w,c
   651   00FC34  0BF8               	andlw	-8
   652   00FC36  182F               	xorwf	??_led_turn_off^0,w,c
   653   00FC38  6E31               	movwf	led_turn_off@Pin_obj^0,c
   654   00FC3A  C02D  FFD9         	movff	led_turn_off@led,fsr2l
   655   00FC3E  C02E  FFDA         	movff	led_turn_off@led+1,fsr2h
   656   00FC42  30DF               	rrcf	223,w,c
   657   00FC44  32E8               	rrcf	wreg,f,c
   658   00FC46  32E8               	rrcf	wreg,f,c
   659   00FC48  0B07               	andlw	7
   660   00FC4A  6E2F               	movwf	??_led_turn_off^0,c
   661   00FC4C  462F               	rlncf	??_led_turn_off^0,f,c
   662   00FC4E  462F               	rlncf	??_led_turn_off^0,f,c
   663   00FC50  462F               	rlncf	??_led_turn_off^0,f,c
   664   00FC52  5031               	movf	led_turn_off@Pin_obj^0,w,c
   665   00FC54  182F               	xorwf	??_led_turn_off^0,w,c
   666   00FC56  0BC7               	andlw	-57
   667   00FC58  182F               	xorwf	??_led_turn_off^0,w,c
   668   00FC5A  6E31               	movwf	led_turn_off@Pin_obj^0,c
   669   00FC5C  9C31               	bcf	led_turn_off@Pin_obj^0,6,c
   670   00FC5E  C02D  FFD9         	movff	led_turn_off@led,fsr2l
   671   00FC62  C02E  FFDA         	movff	led_turn_off@led+1,fsr2h
   672   00FC66  ACDF               	btfss	indf2,6,c
   673   00FC68  D002               	bra	u765
   674   00FC6A  8E31               	bsf	led_turn_off@Pin_obj^0,7,c
   675   00FC6C  D001               	bra	u767
   676   00FC6E                     u765:
   677   00FC6E  9E31               	bcf	led_turn_off@Pin_obj^0,7,c
   678   00FC70                     u767:
   679   00FC70                     
   680                           ;ECU_LAYER/LED/ECU_LED.c: 97:         gpio_pin_write_logic(&Pin_obj,GPIO_LOW);
   681   00FC70  0E31               	movlw	low led_turn_off@Pin_obj
   682   00FC72  6E23               	movwf	gpio_pin_write_logic@_pin_config^0,c
   683   00FC74  0E00               	movlw	high led_turn_off@Pin_obj
   684   00FC76  6E24               	movwf	(gpio_pin_write_logic@_pin_config+1)^0,c
   685   00FC78  0E00               	movlw	0
   686   00FC7A  6E25               	movwf	gpio_pin_write_logic@logic^0,c
   687   00FC7C  ECA6  F07E         	call	_gpio_pin_write_logic	;wreg free
   688   00FC80                     l1317:
   689                           
   690                           ;ECU_LAYER/LED/ECU_LED.c: 99:     return ret ;
   691   00FC80  5030               	movf	led_turn_off@ret^0,w,c
   692   00FC82  0012               	return		;funcret
   693   00FC84                     __end_of_led_turn_off:
   694                           	callstack 0
   695                           
   696 ;; *************** function _gpio_pin_write_logic *****************
   697 ;; Defined at:
   698 ;;		line 84 in file "MCAL_LAYER/GPIO/HAL_GPIO.c"
   699 ;; Parameters:    Size  Location     Type
   700 ;;  _pin_config     2    0[COMRAM] PTR const struct .
   701 ;;		 -> led_turn_off@Pin_obj(1), led_turn_on@Pin_obj(1), 
   702 ;;  logic           1    2[COMRAM] enum E2798
   703 ;; Auto vars:     Size  Location     Type
   704 ;;  ret             1    9[COMRAM] unsigned char 
   705 ;; Return value:  Size  Location     Type
   706 ;;                  1    wreg      unsigned char 
   707 ;; Registers used:
   708 ;;		wreg, fsr2l, fsr2h, status,2, status,0, prodl, prodh
   709 ;; Tracked objects:
   710 ;;		On entry : 0/0
   711 ;;		On exit  : 0/0
   712 ;;		Unchanged: 0/0
   713 ;; Data sizes:     COMRAM   BANK0   BANK1   BANK2   BANK3   BANK4   BANK5   BANK6   BANK7   BANK8   BANK9  BANK10  BANK1
      +1  BANK12  BANK13  BANK14  BANK15
   714 ;;      Params:         3       0       0       0       0       0       0       0       0       0       0       0       
      +0       0       0       0       0
   715 ;;      Locals:         1       0       0       0       0       0       0       0       0       0       0       0       
      +0       0       0       0       0
   716 ;;      Temps:          6       0       0       0       0       0       0       0       0       0       0       0       
      +0       0       0       0       0
   717 ;;      Totals:        10       0       0       0       0       0       0       0       0       0       0       0       
      +0       0       0       0       0
   718 ;;Total ram usage:       10 bytes
   719 ;; Hardware stack levels used: 1
   720 ;; This function calls:
   721 ;;		Nothing
   722 ;; This function is called by:
   723 ;;		_led_turn_on
   724 ;;		_led_turn_off
   725 ;;		_gpio_pin_init
   726 ;; This function uses a non-reentrant model
   727 ;;
   728                           
   729                           	psect	text3
   730   00FD4C                     __ptext3:
   731                           	callstack 0
   732   00FD4C                     _gpio_pin_write_logic:
   733                           	callstack 29
   734   00FD4C                     
   735                           ;MCAL_LAYER/GPIO/HAL_GPIO.c: 85:     Std_ReturnType ret = (Std_ReturnType)0x01 ;
   736   00FD4C  0E01               	movlw	1
   737   00FD4E  6E2C               	movwf	gpio_pin_write_logic@ret^0,c
   738   00FD50                     
   739                           ;MCAL_LAYER/GPIO/HAL_GPIO.c: 86:     if(((void*)0) == _pin_config)
   740   00FD50  5023               	movf	gpio_pin_write_logic@_pin_config^0,w,c
   741   00FD52  1024               	iorwf	(gpio_pin_write_logic@_pin_config+1)^0,w,c
   742   00FD54  A4D8               	btfss	status,2,c
   743   00FD56  EFAF  F07E         	goto	u601
   744   00FD5A  EFB1  F07E         	goto	u600
   745   00FD5E                     u601:
   746   00FD5E  EFB5  F07E         	goto	l1227
   747   00FD62                     u600:
   748   00FD62                     l1225:
   749                           
   750                           ;MCAL_LAYER/GPIO/HAL_GPIO.c: 87:     {;MCAL_LAYER/GPIO/HAL_GPIO.c: 88:        ret = (Std
      +                          _ReturnType)0x00 ;
   751   00FD62  0E00               	movlw	0
   752   00FD64  6E2C               	movwf	gpio_pin_write_logic@ret^0,c
   753                           
   754                           ;MCAL_LAYER/GPIO/HAL_GPIO.c: 89:     }
   755   00FD66  EF4B  F07F         	goto	l1241
   756   00FD6A                     l1227:
   757   00FD6A  C023  FFD9         	movff	gpio_pin_write_logic@_pin_config,fsr2l
   758   00FD6E  C024  FFDA         	movff	gpio_pin_write_logic@_pin_config+1,fsr2h
   759   00FD72  30DF               	rrcf	223,w,c
   760   00FD74  32E8               	rrcf	wreg,f,c
   761   00FD76  32E8               	rrcf	wreg,f,c
   762   00FD78  0B07               	andlw	7
   763   00FD7A  6E26               	movwf	??_gpio_pin_write_logic^0,c
   764   00FD7C  0E08               	movlw	8
   765   00FD7E  6026               	cpfslt	??_gpio_pin_write_logic^0,c
   766   00FD80  EFC4  F07E         	goto	u611
   767   00FD84  EFC6  F07E         	goto	u610
   768   00FD88                     u611:
   769   00FD88  EFB1  F07E         	goto	l1225
   770   00FD8C                     u610:
   771   00FD8C  C023  FFD9         	movff	gpio_pin_write_logic@_pin_config,fsr2l
   772   00FD90  C024  FFDA         	movff	gpio_pin_write_logic@_pin_config+1,fsr2h
   773   00FD94  50DF               	movf	223,w,c
   774   00FD96  0B07               	andlw	7
   775   00FD98  6E26               	movwf	??_gpio_pin_write_logic^0,c
   776   00FD9A  0E03               	movlw	3
   777   00FD9C  6426               	cpfsgt	??_gpio_pin_write_logic^0,c
   778   00FD9E  EFD3  F07E         	goto	u621
   779   00FDA2  EFD5  F07E         	goto	u620
   780   00FDA6                     u621:
   781   00FDA6  EF36  F07F         	goto	l1239
   782   00FDAA                     u620:
   783   00FDAA  EFB1  F07E         	goto	l1225
   784   00FDAE                     l1233:
   785                           
   786                           ;MCAL_LAYER/GPIO/HAL_GPIO.c: 99:                 (*lat_registers[_pin_config->Port] &= ~
      +                          ((uint8_t)1<<_pin_config->Pin_Number));
   787   00FDAE  C023  FFD9         	movff	gpio_pin_write_logic@_pin_config,fsr2l
   788   00FDB2  C024  FFDA         	movff	gpio_pin_write_logic@_pin_config+1,fsr2h
   789   00FDB6  30DF               	rrcf	223,w,c
   790   00FDB8  32E8               	rrcf	wreg,f,c
   791   00FDBA  32E8               	rrcf	wreg,f,c
   792   00FDBC  0B07               	andlw	7
   793   00FDBE  6E26               	movwf	??_gpio_pin_write_logic^0,c
   794   00FDC0  0E01               	movlw	1
   795   00FDC2  6E27               	movwf	(??_gpio_pin_write_logic+1)^0,c
   796   00FDC4  2A26               	incf	??_gpio_pin_write_logic^0,f,c
   797   00FDC6  EFE7  F07E         	goto	u634
   798   00FDCA                     u635:
   799   00FDCA  90D8               	bcf	status,0,c
   800   00FDCC  3627               	rlcf	(??_gpio_pin_write_logic+1)^0,f,c
   801   00FDCE                     u634:
   802   00FDCE  2E26               	decfsz	??_gpio_pin_write_logic^0,f,c
   803   00FDD0  EFE5  F07E         	goto	u635
   804   00FDD4  5027               	movf	(??_gpio_pin_write_logic+1)^0,w,c
   805   00FDD6  0AFF               	xorlw	255
   806   00FDD8  6E28               	movwf	(??_gpio_pin_write_logic+2)^0,c
   807   00FDDA  C023  FFD9         	movff	gpio_pin_write_logic@_pin_config,fsr2l
   808   00FDDE  C024  FFDA         	movff	gpio_pin_write_logic@_pin_config+1,fsr2h
   809   00FDE2  50DF               	movf	223,w,c
   810   00FDE4  0B07               	andlw	7
   811   00FDE6  6E29               	movwf	(??_gpio_pin_write_logic+3)^0,c
   812   00FDE8  5029               	movf	(??_gpio_pin_write_logic+3)^0,w,c
   813   00FDEA  0D02               	mullw	2
   814   00FDEC  0E01               	movlw	low _lat_registers
   815   00FDEE  24F3               	addwf	243,w,c
   816   00FDF0  6ED9               	movwf	fsr2l,c
   817   00FDF2  0E00               	movlw	high _lat_registers
   818   00FDF4  20F4               	addwfc	prodh,w,c
   819   00FDF6  6EDA               	movwf	fsr2h,c
   820   00FDF8  CFDE F02A          	movff	postinc2,??_gpio_pin_write_logic+4
   821   00FDFC  CFDD F02B          	movff	postdec2,??_gpio_pin_write_logic+5
   822   00FE00  C02A  FFD9         	movff	??_gpio_pin_write_logic+4,fsr2l
   823   00FE04  C02B  FFDA         	movff	??_gpio_pin_write_logic+5,fsr2h
   824   00FE08  5028               	movf	(??_gpio_pin_write_logic+2)^0,w,c
   825   00FE0A  16DF               	andwf	indf2,f,c
   826                           
   827                           ;MCAL_LAYER/GPIO/HAL_GPIO.c: 100:                 break;
   828   00FE0C  EF4B  F07F         	goto	l1241
   829   00FE10                     l1235:
   830                           
   831                           ;MCAL_LAYER/GPIO/HAL_GPIO.c: 102:                 (*lat_registers[_pin_config->Port] |= 
      +                          ((uint8_t)1<<_pin_config->Pin_Number));
   832   00FE10  C023  FFD9         	movff	gpio_pin_write_logic@_pin_config,fsr2l
   833   00FE14  C024  FFDA         	movff	gpio_pin_write_logic@_pin_config+1,fsr2h
   834   00FE18  30DF               	rrcf	223,w,c
   835   00FE1A  32E8               	rrcf	wreg,f,c
   836   00FE1C  32E8               	rrcf	wreg,f,c
   837   00FE1E  0B07               	andlw	7
   838   00FE20  6E26               	movwf	??_gpio_pin_write_logic^0,c
   839   00FE22  0E01               	movlw	1
   840   00FE24  6E27               	movwf	(??_gpio_pin_write_logic+1)^0,c
   841   00FE26  2A26               	incf	??_gpio_pin_write_logic^0,f,c
   842   00FE28  EF18  F07F         	goto	u644
   843   00FE2C                     u645:
   844   00FE2C  90D8               	bcf	status,0,c
   845   00FE2E  3627               	rlcf	(??_gpio_pin_write_logic+1)^0,f,c
   846   00FE30                     u644:
   847   00FE30  2E26               	decfsz	??_gpio_pin_write_logic^0,f,c
   848   00FE32  EF16  F07F         	goto	u645
   849   00FE36  C023  FFD9         	movff	gpio_pin_write_logic@_pin_config,fsr2l
   850   00FE3A  C024  FFDA         	movff	gpio_pin_write_logic@_pin_config+1,fsr2h
   851   00FE3E  50DF               	movf	223,w,c
   852   00FE40  0B07               	andlw	7
   853   00FE42  6E28               	movwf	(??_gpio_pin_write_logic+2)^0,c
   854   00FE44  5028               	movf	(??_gpio_pin_write_logic+2)^0,w,c
   855   00FE46  0D02               	mullw	2
   856   00FE48  0E01               	movlw	low _lat_registers
   857   00FE4A  24F3               	addwf	243,w,c
   858   00FE4C  6ED9               	movwf	fsr2l,c
   859   00FE4E  0E00               	movlw	high _lat_registers
   860   00FE50  20F4               	addwfc	prodh,w,c
   861   00FE52  6EDA               	movwf	fsr2h,c
   862   00FE54  CFDE F029          	movff	postinc2,??_gpio_pin_write_logic+3
   863   00FE58  CFDD F02A          	movff	postdec2,??_gpio_pin_write_logic+4
   864   00FE5C  C029  FFD9         	movff	??_gpio_pin_write_logic+3,fsr2l
   865   00FE60  C02A  FFDA         	movff	??_gpio_pin_write_logic+4,fsr2h
   866   00FE64  5027               	movf	(??_gpio_pin_write_logic+1)^0,w,c
   867   00FE66  12DF               	iorwf	indf2,f,c
   868                           
   869                           ;MCAL_LAYER/GPIO/HAL_GPIO.c: 103:                 break;
   870   00FE68  EF4B  F07F         	goto	l1241
   871   00FE6C                     l1239:
   872   00FE6C  5025               	movf	gpio_pin_write_logic@logic^0,w,c
   873   00FE6E  6E26               	movwf	??_gpio_pin_write_logic^0,c
   874   00FE70  6A27               	clrf	(??_gpio_pin_write_logic+1)^0,c
   875                           
   876                           ; Switch on 2 bytes has been partitioned into a top level switch of size 1, and 1 sub-sw
      +                          itches
   877                           ; Switch size 1, requested type "simple"
   878                           ; Number of cases is 1, Range of values is 0 to 0
   879                           ; switch strategies available:
   880                           ; Name         Instructions Cycles
   881                           ; simple_byte            4     3 (average)
   882                           ;	Chosen strategy is simple_byte
   883   00FE72  5027               	movf	(??_gpio_pin_write_logic+1)^0,w,c
   884   00FE74  0A00               	xorlw	0	; case 0
   885   00FE76  B4D8               	btfsc	status,2,c
   886   00FE78  EF40  F07F         	goto	l1375
   887   00FE7C  EFB1  F07E         	goto	l1225
   888   00FE80                     l1375:
   889                           
   890                           ; Switch size 1, requested type "simple"
   891                           ; Number of cases is 2, Range of values is 0 to 1
   892                           ; switch strategies available:
   893                           ; Name         Instructions Cycles
   894                           ; simple_byte            7     4 (average)
   895                           ;	Chosen strategy is simple_byte
   896   00FE80  5026               	movf	??_gpio_pin_write_logic^0,w,c
   897   00FE82  0A00               	xorlw	0	; case 0
   898   00FE84  B4D8               	btfsc	status,2,c
   899   00FE86  EFD7  F07E         	goto	l1233
   900   00FE8A  0A01               	xorlw	1	; case 1
   901   00FE8C  B4D8               	btfsc	status,2,c
   902   00FE8E  EF08  F07F         	goto	l1235
   903   00FE92  EFB1  F07E         	goto	l1225
   904   00FE96                     l1241:
   905                           
   906                           ;MCAL_LAYER/GPIO/HAL_GPIO.c: 108:     return ret ;
   907   00FE96  502C               	movf	gpio_pin_write_logic@ret^0,w,c
   908   00FE98  0012               	return		;funcret
   909   00FE9A                     __end_of_gpio_pin_write_logic:
   910                           	callstack 0
   911                           
   912 ;; *************** function _led_init *****************
   913 ;; Defined at:
   914 ;;		line 17 in file "ECU_LAYER/LED/ECU_LED.c"
   915 ;; Parameters:    Size  Location     Type
   916 ;;  led             2    9[COMRAM] PTR const struct .
   917 ;;		 -> Led4(1), Led3(1), Led2(1), Led1(1), 
   918 ;; Auto vars:     Size  Location     Type
   919 ;;  Pin_obj         1   13[COMRAM] struct .
   920 ;;  ret             1   12[COMRAM] unsigned char 
   921 ;; Return value:  Size  Location     Type
   922 ;;                  1    wreg      unsigned char 
   923 ;; Registers used:
   924 ;;		wreg, fsr2l, fsr2h, status,2, status,0, prodl, prodh, cstack
   925 ;; Tracked objects:
   926 ;;		On entry : 0/0
   927 ;;		On exit  : 0/0
   928 ;;		Unchanged: 0/0
   929 ;; Data sizes:     COMRAM   BANK0   BANK1   BANK2   BANK3   BANK4   BANK5   BANK6   BANK7   BANK8   BANK9  BANK10  BANK1
      +1  BANK12  BANK13  BANK14  BANK15
   930 ;;      Params:         2       0       0       0       0       0       0       0       0       0       0       0       
      +0       0       0       0       0
   931 ;;      Locals:         2       0       0       0       0       0       0       0       0       0       0       0       
      +0       0       0       0       0
   932 ;;      Temps:          1       0       0       0       0       0       0       0       0       0       0       0       
      +0       0       0       0       0
   933 ;;      Totals:         5       0       0       0       0       0       0       0       0       0       0       0       
      +0       0       0       0       0
   934 ;;Total ram usage:        5 bytes
   935 ;; Hardware stack levels used: 1
   936 ;; Hardware stack levels required when called: 1
   937 ;; This function calls:
   938 ;;		_gpio_pin_direction_init
   939 ;; This function is called by:
   940 ;;		_main
   941 ;; This function uses a non-reentrant model
   942 ;;
   943                           
   944                           	psect	text4
   945   00FA34                     __ptext4:
   946                           	callstack 0
   947   00FA34                     _led_init:
   948                           	callstack 29
   949   00FA34                     
   950                           ;ECU_LAYER/LED/ECU_LED.c: 18:     Std_ReturnType ret = (Std_ReturnType)0x01 ;
   951   00FA34  0E01               	movlw	1
   952   00FA36  6E2F               	movwf	led_init@ret^0,c
   953   00FA38                     
   954                           ;ECU_LAYER/LED/ECU_LED.c: 19:     if(((void*)0) == led)
   955   00FA38  502C               	movf	led_init@led^0,w,c
   956   00FA3A  102D               	iorwf	(led_init@led+1)^0,w,c
   957   00FA3C  A4D8               	btfss	status,2,c
   958   00FA3E  EF23  F07D         	goto	u651
   959   00FA42  EF25  F07D         	goto	u650
   960   00FA46                     u651:
   961   00FA46  EF29  F07D         	goto	l1255
   962   00FA4A                     u650:
   963   00FA4A                     l1253:
   964                           
   965                           ;ECU_LAYER/LED/ECU_LED.c: 20:     {;ECU_LAYER/LED/ECU_LED.c: 21:        ret = (Std_Retur
      +                          nType)0x00 ;
   966   00FA4A  0E00               	movlw	0
   967   00FA4C  6E2F               	movwf	led_init@ret^0,c
   968                           
   969                           ;ECU_LAYER/LED/ECU_LED.c: 22:     }
   970   00FA4E  EF7A  F07D         	goto	l1269
   971   00FA52                     l1255:
   972   00FA52  C02C  FFD9         	movff	led_init@led,fsr2l
   973   00FA56  C02D  FFDA         	movff	led_init@led+1,fsr2h
   974   00FA5A  30DF               	rrcf	223,w,c
   975   00FA5C  32E8               	rrcf	wreg,f,c
   976   00FA5E  32E8               	rrcf	wreg,f,c
   977   00FA60  0B07               	andlw	7
   978   00FA62  6E2E               	movwf	??_led_init^0,c
   979   00FA64  0E08               	movlw	8
   980   00FA66  602E               	cpfslt	??_led_init^0,c
   981   00FA68  EF38  F07D         	goto	u661
   982   00FA6C  EF3A  F07D         	goto	u660
   983   00FA70                     u661:
   984   00FA70  EF25  F07D         	goto	l1253
   985   00FA74                     u660:
   986   00FA74  C02C  FFD9         	movff	led_init@led,fsr2l
   987   00FA78  C02D  FFDA         	movff	led_init@led+1,fsr2h
   988   00FA7C  50DF               	movf	223,w,c
   989   00FA7E  0B07               	andlw	7
   990   00FA80  6E2E               	movwf	??_led_init^0,c
   991   00FA82  0E03               	movlw	3
   992   00FA84  642E               	cpfsgt	??_led_init^0,c
   993   00FA86  EF47  F07D         	goto	u671
   994   00FA8A  EF49  F07D         	goto	u670
   995   00FA8E                     u671:
   996   00FA8E  EF4B  F07D         	goto	l11
   997   00FA92                     u670:
   998   00FA92  EF25  F07D         	goto	l1253
   999   00FA96                     l11:
  1000                           
  1001                           ;ECU_LAYER/LED/ECU_LED.c: 28:     {;ECU_LAYER/LED/ECU_LED.c: 29:         pinConfig_t Pin
      +                          _obj = {
  1002   00FA96  C037  F030         	movff	led_init@F2879,led_init@Pin_obj
  1003   00FA9A  C02C  FFD9         	movff	led_init@led,fsr2l
  1004   00FA9E  C02D  FFDA         	movff	led_init@led+1,fsr2h
  1005   00FAA2  50DF               	movf	223,w,c
  1006   00FAA4  0B07               	andlw	7
  1007   00FAA6  6E2E               	movwf	??_led_init^0,c
  1008   00FAA8  5030               	movf	led_init@Pin_obj^0,w,c
  1009   00FAAA  182E               	xorwf	??_led_init^0,w,c
  1010   00FAAC  0BF8               	andlw	-8
  1011   00FAAE  182E               	xorwf	??_led_init^0,w,c
  1012   00FAB0  6E30               	movwf	led_init@Pin_obj^0,c
  1013   00FAB2  C02C  FFD9         	movff	led_init@led,fsr2l
  1014   00FAB6  C02D  FFDA         	movff	led_init@led+1,fsr2h
  1015   00FABA  30DF               	rrcf	223,w,c
  1016   00FABC  32E8               	rrcf	wreg,f,c
  1017   00FABE  32E8               	rrcf	wreg,f,c
  1018   00FAC0  0B07               	andlw	7
  1019   00FAC2  6E2E               	movwf	??_led_init^0,c
  1020   00FAC4  462E               	rlncf	??_led_init^0,f,c
  1021   00FAC6  462E               	rlncf	??_led_init^0,f,c
  1022   00FAC8  462E               	rlncf	??_led_init^0,f,c
  1023   00FACA  5030               	movf	led_init@Pin_obj^0,w,c
  1024   00FACC  182E               	xorwf	??_led_init^0,w,c
  1025   00FACE  0BC7               	andlw	-57
  1026   00FAD0  182E               	xorwf	??_led_init^0,w,c
  1027   00FAD2  6E30               	movwf	led_init@Pin_obj^0,c
  1028   00FAD4  9C30               	bcf	led_init@Pin_obj^0,6,c
  1029   00FAD6  C02C  FFD9         	movff	led_init@led,fsr2l
  1030   00FADA  C02D  FFDA         	movff	led_init@led+1,fsr2h
  1031   00FADE  ACDF               	btfss	indf2,6,c
  1032   00FAE0  D002               	bra	u685
  1033   00FAE2  8E30               	bsf	led_init@Pin_obj^0,7,c
  1034   00FAE4  D001               	bra	u687
  1035   00FAE6                     u685:
  1036   00FAE6  9E30               	bcf	led_init@Pin_obj^0,7,c
  1037   00FAE8                     u687:
  1038   00FAE8                     
  1039                           ;ECU_LAYER/LED/ECU_LED.c: 35:         gpio_pin_direction_init(&Pin_obj);
  1040   00FAE8  0E30               	movlw	low led_init@Pin_obj
  1041   00FAEA  6E23               	movwf	gpio_pin_direction_init@_pin_config^0,c
  1042   00FAEC  0E00               	movlw	high led_init@Pin_obj
  1043   00FAEE  6E24               	movwf	(gpio_pin_direction_init@_pin_config+1)^0,c
  1044   00FAF0  EC4D  F07F         	call	_gpio_pin_direction_init	;wreg free
  1045   00FAF4                     l1269:
  1046                           
  1047                           ;ECU_LAYER/LED/ECU_LED.c: 37:     return ret ;
  1048   00FAF4  502F               	movf	led_init@ret^0,w,c
  1049   00FAF6  0012               	return		;funcret
  1050   00FAF8                     __end_of_led_init:
  1051                           	callstack 0
  1052                           
  1053 ;; *************** function _gpio_pin_direction_init *****************
  1054 ;; Defined at:
  1055 ;;		line 22 in file "MCAL_LAYER/GPIO/HAL_GPIO.c"
  1056 ;; Parameters:    Size  Location     Type
  1057 ;;  _pin_config     2    0[COMRAM] PTR const struct .
  1058 ;;		 -> led_init@Pin_obj(1), 
  1059 ;; Auto vars:     Size  Location     Type
  1060 ;;  ret             1    8[COMRAM] unsigned char 
  1061 ;; Return value:  Size  Location     Type
  1062 ;;                  1    wreg      unsigned char 
  1063 ;; Registers used:
  1064 ;;		wreg, fsr2l, fsr2h, status,2, status,0, prodl, prodh
  1065 ;; Tracked objects:
  1066 ;;		On entry : 0/0
  1067 ;;		On exit  : 0/0
  1068 ;;		Unchanged: 0/0
  1069 ;; Data sizes:     COMRAM   BANK0   BANK1   BANK2   BANK3   BANK4   BANK5   BANK6   BANK7   BANK8   BANK9  BANK10  BANK1
      +1  BANK12  BANK13  BANK14  BANK15
  1070 ;;      Params:         2       0       0       0       0       0       0       0       0       0       0       0       
      +0       0       0       0       0
  1071 ;;      Locals:         1       0       0       0       0       0       0       0       0       0       0       0       
      +0       0       0       0       0
  1072 ;;      Temps:          6       0       0       0       0       0       0       0       0       0       0       0       
      +0       0       0       0       0
  1073 ;;      Totals:         9       0       0       0       0       0       0       0       0       0       0       0       
      +0       0       0       0       0
  1074 ;;Total ram usage:        9 bytes
  1075 ;; Hardware stack levels used: 1
  1076 ;; This function calls:
  1077 ;;		Nothing
  1078 ;; This function is called by:
  1079 ;;		_led_init
  1080 ;;		_gpio_pin_init
  1081 ;; This function uses a non-reentrant model
  1082 ;;
  1083                           
  1084                           	psect	text5
  1085   00FE9A                     __ptext5:
  1086                           	callstack 0
  1087   00FE9A                     _gpio_pin_direction_init:
  1088                           	callstack 29
  1089   00FE9A                     
  1090                           ;MCAL_LAYER/GPIO/HAL_GPIO.c: 23:     Std_ReturnType ret = (Std_ReturnType)0x01 ;
  1091   00FE9A  0E01               	movlw	1
  1092   00FE9C  6E2B               	movwf	gpio_pin_direction_init@ret^0,c
  1093   00FE9E                     
  1094                           ;MCAL_LAYER/GPIO/HAL_GPIO.c: 24:     if(((void*)0) == _pin_config)
  1095   00FE9E  5023               	movf	gpio_pin_direction_init@_pin_config^0,w,c
  1096   00FEA0  1024               	iorwf	(gpio_pin_direction_init@_pin_config+1)^0,w,c
  1097   00FEA2  A4D8               	btfss	status,2,c
  1098   00FEA4  EF56  F07F         	goto	u531
  1099   00FEA8  EF58  F07F         	goto	u530
  1100   00FEAC                     u531:
  1101   00FEAC  EF5C  F07F         	goto	l1199
  1102   00FEB0                     u530:
  1103   00FEB0                     l1197:
  1104                           
  1105                           ;MCAL_LAYER/GPIO/HAL_GPIO.c: 25:     {;MCAL_LAYER/GPIO/HAL_GPIO.c: 26:        ret = (Std
      +                          _ReturnType)0x00 ;
  1106   00FEB0  0E00               	movlw	0
  1107   00FEB2  6E2B               	movwf	gpio_pin_direction_init@ret^0,c
  1108                           
  1109                           ;MCAL_LAYER/GPIO/HAL_GPIO.c: 27:     }
  1110   00FEB4  EFFE  F07F         	goto	l1213
  1111   00FEB8                     l1199:
  1112   00FEB8  C023  FFD9         	movff	gpio_pin_direction_init@_pin_config,fsr2l
  1113   00FEBC  C024  FFDA         	movff	gpio_pin_direction_init@_pin_config+1,fsr2h
  1114   00FEC0  30DF               	rrcf	223,w,c
  1115   00FEC2  32E8               	rrcf	wreg,f,c
  1116   00FEC4  32E8               	rrcf	wreg,f,c
  1117   00FEC6  0B07               	andlw	7
  1118   00FEC8  6E25               	movwf	??_gpio_pin_direction_init^0,c
  1119   00FECA  0E08               	movlw	8
  1120   00FECC  6025               	cpfslt	??_gpio_pin_direction_init^0,c
  1121   00FECE  EF6B  F07F         	goto	u541
  1122   00FED2  EF6D  F07F         	goto	u540
  1123   00FED6                     u541:
  1124   00FED6  EF58  F07F         	goto	l1197
  1125   00FEDA                     u540:
  1126   00FEDA  C023  FFD9         	movff	gpio_pin_direction_init@_pin_config,fsr2l
  1127   00FEDE  C024  FFDA         	movff	gpio_pin_direction_init@_pin_config+1,fsr2h
  1128   00FEE2  50DF               	movf	223,w,c
  1129   00FEE4  0B07               	andlw	7
  1130   00FEE6  6E25               	movwf	??_gpio_pin_direction_init^0,c
  1131   00FEE8  0E03               	movlw	3
  1132   00FEEA  6425               	cpfsgt	??_gpio_pin_direction_init^0,c
  1133   00FEEC  EF7A  F07F         	goto	u551
  1134   00FEF0  EF7C  F07F         	goto	u550
  1135   00FEF4                     u551:
  1136   00FEF4  EFDD  F07F         	goto	l1211
  1137   00FEF8                     u550:
  1138   00FEF8  EF58  F07F         	goto	l1197
  1139   00FEFC                     l1205:
  1140                           
  1141                           ;MCAL_LAYER/GPIO/HAL_GPIO.c: 37:                 (*tris_registers[_pin_config->Port] &= 
      +                          ~((uint8_t)1<<_pin_config->Pin_Number));
  1142   00FEFC  C023  FFD9         	movff	gpio_pin_direction_init@_pin_config,fsr2l
  1143   00FF00  C024  FFDA         	movff	gpio_pin_direction_init@_pin_config+1,fsr2h
  1144   00FF04  30DF               	rrcf	223,w,c
  1145   00FF06  32E8               	rrcf	wreg,f,c
  1146   00FF08  32E8               	rrcf	wreg,f,c
  1147   00FF0A  0B07               	andlw	7
  1148   00FF0C  6E25               	movwf	??_gpio_pin_direction_init^0,c
  1149   00FF0E  0E01               	movlw	1
  1150   00FF10  6E26               	movwf	(??_gpio_pin_direction_init+1)^0,c
  1151   00FF12  2A25               	incf	??_gpio_pin_direction_init^0,f,c
  1152   00FF14  EF8E  F07F         	goto	u564
  1153   00FF18                     u565:
  1154   00FF18  90D8               	bcf	status,0,c
  1155   00FF1A  3626               	rlcf	(??_gpio_pin_direction_init+1)^0,f,c
  1156   00FF1C                     u564:
  1157   00FF1C  2E25               	decfsz	??_gpio_pin_direction_init^0,f,c
  1158   00FF1E  EF8C  F07F         	goto	u565
  1159   00FF22  5026               	movf	(??_gpio_pin_direction_init+1)^0,w,c
  1160   00FF24  0AFF               	xorlw	255
  1161   00FF26  6E27               	movwf	(??_gpio_pin_direction_init+2)^0,c
  1162   00FF28  C023  FFD9         	movff	gpio_pin_direction_init@_pin_config,fsr2l
  1163   00FF2C  C024  FFDA         	movff	gpio_pin_direction_init@_pin_config+1,fsr2h
  1164   00FF30  50DF               	movf	223,w,c
  1165   00FF32  0B07               	andlw	7
  1166   00FF34  6E28               	movwf	(??_gpio_pin_direction_init+3)^0,c
  1167   00FF36  5028               	movf	(??_gpio_pin_direction_init+3)^0,w,c
  1168   00FF38  0D02               	mullw	2
  1169   00FF3A  0E15               	movlw	low _tris_registers
  1170   00FF3C  24F3               	addwf	243,w,c
  1171   00FF3E  6ED9               	movwf	fsr2l,c
  1172   00FF40  0E00               	movlw	high _tris_registers
  1173   00FF42  20F4               	addwfc	prodh,w,c
  1174   00FF44  6EDA               	movwf	fsr2h,c
  1175   00FF46  CFDE F029          	movff	postinc2,??_gpio_pin_direction_init+4
  1176   00FF4A  CFDD F02A          	movff	postdec2,??_gpio_pin_direction_init+5
  1177   00FF4E  C029  FFD9         	movff	??_gpio_pin_direction_init+4,fsr2l
  1178   00FF52  C02A  FFDA         	movff	??_gpio_pin_direction_init+5,fsr2h
  1179   00FF56  5027               	movf	(??_gpio_pin_direction_init+2)^0,w,c
  1180   00FF58  16DF               	andwf	indf2,f,c
  1181                           
  1182                           ;MCAL_LAYER/GPIO/HAL_GPIO.c: 38:                 break;
  1183   00FF5A  EFFE  F07F         	goto	l1213
  1184   00FF5E                     l1207:
  1185                           
  1186                           ;MCAL_LAYER/GPIO/HAL_GPIO.c: 40:                 (*tris_registers[_pin_config->Port] |= 
      +                          ((uint8_t)1<<_pin_config->Pin_Number));
  1187   00FF5E  C023  FFD9         	movff	gpio_pin_direction_init@_pin_config,fsr2l
  1188   00FF62  C024  FFDA         	movff	gpio_pin_direction_init@_pin_config+1,fsr2h
  1189   00FF66  30DF               	rrcf	223,w,c
  1190   00FF68  32E8               	rrcf	wreg,f,c
  1191   00FF6A  32E8               	rrcf	wreg,f,c
  1192   00FF6C  0B07               	andlw	7
  1193   00FF6E  6E25               	movwf	??_gpio_pin_direction_init^0,c
  1194   00FF70  0E01               	movlw	1
  1195   00FF72  6E26               	movwf	(??_gpio_pin_direction_init+1)^0,c
  1196   00FF74  2A25               	incf	??_gpio_pin_direction_init^0,f,c
  1197   00FF76  EFBF  F07F         	goto	u574
  1198   00FF7A                     u575:
  1199   00FF7A  90D8               	bcf	status,0,c
  1200   00FF7C  3626               	rlcf	(??_gpio_pin_direction_init+1)^0,f,c
  1201   00FF7E                     u574:
  1202   00FF7E  2E25               	decfsz	??_gpio_pin_direction_init^0,f,c
  1203   00FF80  EFBD  F07F         	goto	u575
  1204   00FF84  C023  FFD9         	movff	gpio_pin_direction_init@_pin_config,fsr2l
  1205   00FF88  C024  FFDA         	movff	gpio_pin_direction_init@_pin_config+1,fsr2h
  1206   00FF8C  50DF               	movf	223,w,c
  1207   00FF8E  0B07               	andlw	7
  1208   00FF90  6E27               	movwf	(??_gpio_pin_direction_init+2)^0,c
  1209   00FF92  5027               	movf	(??_gpio_pin_direction_init+2)^0,w,c
  1210   00FF94  0D02               	mullw	2
  1211   00FF96  0E15               	movlw	low _tris_registers
  1212   00FF98  24F3               	addwf	243,w,c
  1213   00FF9A  6ED9               	movwf	fsr2l,c
  1214   00FF9C  0E00               	movlw	high _tris_registers
  1215   00FF9E  20F4               	addwfc	prodh,w,c
  1216   00FFA0  6EDA               	movwf	fsr2h,c
  1217   00FFA2  CFDE F028          	movff	postinc2,??_gpio_pin_direction_init+3
  1218   00FFA6  CFDD F029          	movff	postdec2,??_gpio_pin_direction_init+4
  1219   00FFAA  C028  FFD9         	movff	??_gpio_pin_direction_init+3,fsr2l
  1220   00FFAE  C029  FFDA         	movff	??_gpio_pin_direction_init+4,fsr2h
  1221   00FFB2  5026               	movf	(??_gpio_pin_direction_init+1)^0,w,c
  1222   00FFB4  12DF               	iorwf	indf2,f,c
  1223                           
  1224                           ;MCAL_LAYER/GPIO/HAL_GPIO.c: 41:                 break;
  1225   00FFB6  EFFE  F07F         	goto	l1213
  1226   00FFBA                     l1211:
  1227   00FFBA  C023  FFD9         	movff	gpio_pin_direction_init@_pin_config,fsr2l
  1228   00FFBE  C024  FFDA         	movff	gpio_pin_direction_init@_pin_config+1,fsr2h
  1229   00FFC2  BCDF               	btfsc	indf2,6,c
  1230   00FFC4  EFE6  F07F         	goto	u581
  1231   00FFC8  EFE9  F07F         	goto	u580
  1232   00FFCC                     u581:
  1233   00FFCC  0E01               	movlw	1
  1234   00FFCE  EFEA  F07F         	goto	u590
  1235   00FFD2                     u580:
  1236   00FFD2  0E00               	movlw	0
  1237   00FFD4                     u590:
  1238   00FFD4  6E25               	movwf	??_gpio_pin_direction_init^0,c
  1239   00FFD6  6A26               	clrf	(??_gpio_pin_direction_init+1)^0,c
  1240                           
  1241                           ; Switch on 2 bytes has been partitioned into a top level switch of size 1, and 1 sub-sw
      +                          itches
  1242                           ; Switch size 1, requested type "simple"
  1243                           ; Number of cases is 1, Range of values is 0 to 0
  1244                           ; switch strategies available:
  1245                           ; Name         Instructions Cycles
  1246                           ; simple_byte            4     3 (average)
  1247                           ;	Chosen strategy is simple_byte
  1248   00FFD8  5026               	movf	(??_gpio_pin_direction_init+1)^0,w,c
  1249   00FFDA  0A00               	xorlw	0	; case 0
  1250   00FFDC  B4D8               	btfsc	status,2,c
  1251   00FFDE  EFF3  F07F         	goto	l1377
  1252   00FFE2  EF58  F07F         	goto	l1197
  1253   00FFE6                     l1377:
  1254                           
  1255                           ; Switch size 1, requested type "simple"
  1256                           ; Number of cases is 2, Range of values is 0 to 1
  1257                           ; switch strategies available:
  1258                           ; Name         Instructions Cycles
  1259                           ; simple_byte            7     4 (average)
  1260                           ;	Chosen strategy is simple_byte
  1261   00FFE6  5025               	movf	??_gpio_pin_direction_init^0,w,c
  1262   00FFE8  0A00               	xorlw	0	; case 0
  1263   00FFEA  B4D8               	btfsc	status,2,c
  1264   00FFEC  EF7E  F07F         	goto	l1205
  1265   00FFF0  0A01               	xorlw	1	; case 1
  1266   00FFF2  B4D8               	btfsc	status,2,c
  1267   00FFF4  EFAF  F07F         	goto	l1207
  1268   00FFF8  EF58  F07F         	goto	l1197
  1269   00FFFC                     l1213:
  1270                           
  1271                           ;MCAL_LAYER/GPIO/HAL_GPIO.c: 46:     return ret ;
  1272   00FFFC  502B               	movf	gpio_pin_direction_init@ret^0,w,c
  1273   00FFFE  0012               	return		;funcret
  1274   010000                     __end_of_gpio_pin_direction_init:
  1275                           	callstack 0
  1276   000000                     
  1277                           	psect	rparam
  1278   000000                     
  1279                           	psect	idloc
  1280                           
  1281                           ;Config register IDLOC0 @ 0x200000
  1282                           ;	unspecified, using default values
  1283   200000                     	org	2097152
  1284   200000  FF                 	db	255
  1285                           
  1286                           ;Config register IDLOC1 @ 0x200001
  1287                           ;	unspecified, using default values
  1288   200001                     	org	2097153
  1289   200001  FF                 	db	255
  1290                           
  1291                           ;Config register IDLOC2 @ 0x200002
  1292                           ;	unspecified, using default values
  1293   200002                     	org	2097154
  1294   200002  FF                 	db	255
  1295                           
  1296                           ;Config register IDLOC3 @ 0x200003
  1297                           ;	unspecified, using default values
  1298   200003                     	org	2097155
  1299   200003  FF                 	db	255
  1300                           
  1301                           ;Config register IDLOC4 @ 0x200004
  1302                           ;	unspecified, using default values
  1303   200004                     	org	2097156
  1304   200004  FF                 	db	255
  1305                           
  1306                           ;Config register IDLOC5 @ 0x200005
  1307                           ;	unspecified, using default values
  1308   200005                     	org	2097157
  1309   200005  FF                 	db	255
  1310                           
  1311                           ;Config register IDLOC6 @ 0x200006
  1312                           ;	unspecified, using default values
  1313   200006                     	org	2097158
  1314   200006  FF                 	db	255
  1315                           
  1316                           ;Config register IDLOC7 @ 0x200007
  1317                           ;	unspecified, using default values
  1318   200007                     	org	2097159
  1319   200007  FF                 	db	255
  1320                           
  1321                           	psect	config
  1322                           
  1323                           ; Padding undefined space
  1324   300000                     	org	3145728
  1325   300000  FF                 	db	255
  1326                           
  1327                           ;Config register CONFIG1H @ 0x300001
  1328                           ;	Oscillator Selection bits
  1329                           ;	OSC = HS, HS oscillator
  1330                           ;	Fail-Safe Clock Monitor Enable bit
  1331                           ;	FCMEN = OFF, Fail-Safe Clock Monitor disabled
  1332                           ;	Internal/External Oscillator Switchover bit
  1333                           ;	IESO = OFF, Oscillator Switchover mode disabled
  1334   300001                     	org	3145729
  1335   300001  02                 	db	2
  1336                           
  1337                           ;Config register CONFIG2L @ 0x300002
  1338                           ;	Power-up Timer Enable bit
  1339                           ;	PWRT = OFF, PWRT disabled
  1340                           ;	Brown-out Reset Enable bits
  1341                           ;	BOREN = OFF, Brown-out Reset disabled in hardware and software
  1342                           ;	Brown Out Reset Voltage bits
  1343                           ;	BORV = 1, 
  1344   300002                     	org	3145730
  1345   300002  09                 	db	9
  1346                           
  1347                           ;Config register CONFIG2H @ 0x300003
  1348                           ;	Watchdog Timer Enable bit
  1349                           ;	WDT = OFF, WDT disabled (control is placed on the SWDTEN bit)
  1350                           ;	Watchdog Timer Postscale Select bits
  1351                           ;	WDTPS = 32768, 1:32768
  1352   300003                     	org	3145731
  1353   300003  1E                 	db	30
  1354                           
  1355                           ; Padding undefined space
  1356   300004                     	org	3145732
  1357   300004  FF                 	db	255
  1358                           
  1359                           ;Config register CONFIG3H @ 0x300005
  1360                           ;	CCP2 MUX bit
  1361                           ;	CCP2MX = PORTC, CCP2 input/output is multiplexed with RC1
  1362                           ;	PORTB A/D Enable bit
  1363                           ;	PBADEN = OFF, PORTB<4:0> pins are configured as digital I/O on Reset
  1364                           ;	Low-Power Timer1 Oscillator Enable bit
  1365                           ;	LPT1OSC = OFF, Timer1 configured for higher power operation
  1366                           ;	MCLR Pin Enable bit
  1367                           ;	MCLRE = ON, MCLR pin enabled; RE3 input pin disabled
  1368   300005                     	org	3145733
  1369   300005  81                 	db	129
  1370                           
  1371                           ;Config register CONFIG4L @ 0x300006
  1372                           ;	Stack Full/Underflow Reset Enable bit
  1373                           ;	STVREN = ON, Stack full/underflow will cause Reset
  1374                           ;	Single-Supply ICSP Enable bit
  1375                           ;	LVP = OFF, Single-Supply ICSP disabled
  1376                           ;	Extended Instruction Set Enable bit
  1377                           ;	XINST = OFF, Instruction set extension and Indexed Addressing mode disabled (Legacy mo
      +                          de)
  1378                           ;	Background Debugger Enable bit
  1379                           ;	DEBUG = 0x1, unprogrammed default
  1380   300006                     	org	3145734
  1381   300006  81                 	db	129
  1382                           
  1383                           ; Padding undefined space
  1384   300007                     	org	3145735
  1385   300007  FF                 	db	255
  1386                           
  1387                           ;Config register CONFIG5L @ 0x300008
  1388                           ;	Code Protection bit
  1389                           ;	CP0 = OFF, Block 0 (000800-003FFFh) not code-protected
  1390                           ;	Code Protection bit
  1391                           ;	CP1 = OFF, Block 1 (004000-007FFFh) not code-protected
  1392                           ;	Code Protection bit
  1393                           ;	CP2 = OFF, Block 2 (008000-00BFFFh) not code-protected
  1394                           ;	Code Protection bit
  1395                           ;	CP3 = OFF, Block 3 (00C000-00FFFFh) not code-protected
  1396   300008                     	org	3145736
  1397   300008  0F                 	db	15
  1398                           
  1399                           ;Config register CONFIG5H @ 0x300009
  1400                           ;	Boot Block Code Protection bit
  1401                           ;	CPB = OFF, Boot block (000000-0007FFh) not code-protected
  1402                           ;	Data EEPROM Code Protection bit
  1403                           ;	CPD = OFF, Data EEPROM not code-protected
  1404   300009                     	org	3145737
  1405   300009  C0                 	db	192
  1406                           
  1407                           ;Config register CONFIG6L @ 0x30000A
  1408                           ;	Write Protection bit
  1409                           ;	WRT0 = OFF, Block 0 (000800-003FFFh) not write-protected
  1410                           ;	Write Protection bit
  1411                           ;	WRT1 = OFF, Block 1 (004000-007FFFh) not write-protected
  1412                           ;	Write Protection bit
  1413                           ;	WRT2 = OFF, Block 2 (008000-00BFFFh) not write-protected
  1414                           ;	Write Protection bit
  1415                           ;	WRT3 = OFF, Block 3 (00C000-00FFFFh) not write-protected
  1416   30000A                     	org	3145738
  1417   30000A  0F                 	db	15
  1418                           
  1419                           ;Config register CONFIG6H @ 0x30000B
  1420                           ;	Configuration Register Write Protection bit
  1421                           ;	WRTC = OFF, Configuration registers (300000-3000FFh) not write-protected
  1422                           ;	Boot Block Write Protection bit
  1423                           ;	WRTB = OFF, Boot Block (000000-0007FFh) not write-protected
  1424                           ;	Data EEPROM Write Protection bit
  1425                           ;	WRTD = OFF, Data EEPROM not write-protected
  1426   30000B                     	org	3145739
  1427   30000B  E0                 	db	224
  1428                           
  1429                           ;Config register CONFIG7L @ 0x30000C
  1430                           ;	Table Read Protection bit
  1431                           ;	EBTR0 = OFF, Block 0 (000800-003FFFh) not protected from table reads executed in other
      +                           blocks
  1432                           ;	Table Read Protection bit
  1433                           ;	EBTR1 = OFF, Block 1 (004000-007FFFh) not protected from table reads executed in other
      +                           blocks
  1434                           ;	Table Read Protection bit
  1435                           ;	EBTR2 = OFF, Block 2 (008000-00BFFFh) not protected from table reads executed in other
      +                           blocks
  1436                           ;	Table Read Protection bit
  1437                           ;	EBTR3 = OFF, Block 3 (00C000-00FFFFh) not protected from table reads executed in other
      +                           blocks
  1438   30000C                     	org	3145740
  1439   30000C  0F                 	db	15
  1440                           
  1441                           ;Config register CONFIG7H @ 0x30000D
  1442                           ;	Boot Block Table Read Protection bit
  1443                           ;	EBTRB = OFF, Boot Block (000000-0007FFh) not protected from table reads executed in ot
      +                          her blocks
  1444   30000D                     	org	3145741
  1445   30000D  40                 	db	64
  1446                           tosu	equ	0xFFF
  1447                           tosh	equ	0xFFE
  1448                           tosl	equ	0xFFD
  1449                           stkptr	equ	0xFFC
  1450                           pclatu	equ	0xFFB
  1451                           pclath	equ	0xFFA
  1452                           pcl	equ	0xFF9
  1453                           tblptru	equ	0xFF8
  1454                           tblptrh	equ	0xFF7
  1455                           tblptrl	equ	0xFF6
  1456                           tablat	equ	0xFF5
  1457                           prodh	equ	0xFF4
  1458                           prodl	equ	0xFF3
  1459                           indf0	equ	0xFEF
  1460                           postinc0	equ	0xFEE
  1461                           postdec0	equ	0xFED
  1462                           preinc0	equ	0xFEC
  1463                           plusw0	equ	0xFEB
  1464                           fsr0h	equ	0xFEA
  1465                           fsr0l	equ	0xFE9
  1466                           wreg	equ	0xFE8
  1467                           indf1	equ	0xFE7
  1468                           postinc1	equ	0xFE6
  1469                           postdec1	equ	0xFE5
  1470                           preinc1	equ	0xFE4
  1471                           plusw1	equ	0xFE3
  1472                           fsr1h	equ	0xFE2
  1473                           fsr1l	equ	0xFE1
  1474                           bsr	equ	0xFE0
  1475                           indf2	equ	0xFDF
  1476                           postinc2	equ	0xFDE
  1477                           postdec2	equ	0xFDD
  1478                           preinc2	equ	0xFDC
  1479                           plusw2	equ	0xFDB
  1480                           fsr2h	equ	0xFDA
  1481                           fsr2l	equ	0xFD9
  1482                           status	equ	0xFD8

Data Sizes:
    Strings     0
    Constant    0
    Data        34
    BSS         4
    Persistent  0
    Stack       0

Auto Spaces:
    Space          Size  Autos    Used
    COMRAM          127     17      55
    BANK0           128      0       0
    BANK1           256      0       0
    BANK2           256      0       0
    BANK3           256      0       0
    BANK4           256      0       0
    BANK5           256      0       0
    BANK6           256      0       0
    BANK7           256      0       0
    BANK8           256      0       0
    BANK9           256      0       0
    BANK10          256      0       0
    BANK11          256      0       0
    BANK12          256      0       0
    BANK13          256      0       0
    BANK14          256      0       0
    BANK15          128      0       0

Pointer List with Targets:

    gpio_pin_write_logic@_pin_config	PTR const struct . size(2) Largest target is 1
		 -> led_turn_off@Pin_obj(COMRAM[1]), led_turn_on@Pin_obj(COMRAM[1]), 

    gpio_pin_direction_init@_pin_config	PTR const struct . size(2) Largest target is 1
		 -> led_init@Pin_obj(COMRAM[1]), 

    lat_registers	PTR volatile unsigned char [5] size(2) Largest target is 1
		 -> LATE(BITBIGSFRlh[1]), LATD(BITBIGSFRlh[1]), LATC(BITBIGSFRlh[1]), LATB(BITBIGSFRlh[1]), 
		 -> LATA(BITBIGSFRll[1]), 

    port_registers	PTR volatile unsigned char [5] size(2) Largest target is 1
		 -> PORTE(BITBIGSFRll[1]), PORTD(BITBIGSFRll[1]), PORTC(BITBIGSFRll[1]), PORTB(BITBIGSFRll[1]), 
		 -> PORTA(BITBIGSFRll[1]), 

    tris_registers	PTR volatile unsigned char [5] size(2) Largest target is 1
		 -> TRISE(BITBIGSFRh[1]), TRISD(BITBIGSFRh[1]), TRISC(BITBIGSFRh[1]), TRISB(BITBIGSFRh[1]), 
		 -> TRISA(BITBIGSFRll[1]), 

    led_turn_off@led	PTR const struct . size(2) Largest target is 1
		 -> Led4(COMRAM[1]), Led3(COMRAM[1]), Led2(COMRAM[1]), Led1(COMRAM[1]), 

    led_turn_on@led	PTR const struct . size(2) Largest target is 1
		 -> Led4(COMRAM[1]), Led3(COMRAM[1]), Led2(COMRAM[1]), Led1(COMRAM[1]), 

    led_init@led	PTR const struct . size(2) Largest target is 1
		 -> Led4(COMRAM[1]), Led3(COMRAM[1]), Led2(COMRAM[1]), Led1(COMRAM[1]), 


Critical Paths under _main in COMRAM

    _main->_led_turn_off
    _main->_led_turn_on
    _led_turn_on->_gpio_pin_write_logic
    _led_turn_off->_gpio_pin_write_logic
    _led_init->_gpio_pin_direction_init

Critical Paths under _main in BANK0

    None.

Critical Paths under _main in BANK1

    None.

Critical Paths under _main in BANK2

    None.

Critical Paths under _main in BANK3

    None.

Critical Paths under _main in BANK4

    None.

Critical Paths under _main in BANK5

    None.

Critical Paths under _main in BANK6

    None.

Critical Paths under _main in BANK7

    None.

Critical Paths under _main in BANK8

    None.

Critical Paths under _main in BANK9

    None.

Critical Paths under _main in BANK10

    None.

Critical Paths under _main in BANK11

    None.

Critical Paths under _main in BANK12

    None.

Critical Paths under _main in BANK13

    None.

Critical Paths under _main in BANK14

    None.

Critical Paths under _main in BANK15

    None.

Call Graph Tables:

 ---------------------------------------------------------------------------------
 (Depth) Function   	        Calls       Base Space   Used Autos Params    Refs
 ---------------------------------------------------------------------------------
 (0) _main                                                 3     3      0    3166
                                             15 COMRAM     2     2      0
                           _led_init
                       _led_turn_off
                        _led_turn_on
 ---------------------------------------------------------------------------------
 (1) _led_turn_on                                          5     3      2    1152
                                             10 COMRAM     5     3      2
               _gpio_pin_write_logic
 ---------------------------------------------------------------------------------
 (1) _led_turn_off                                         5     3      2    1152
                                             10 COMRAM     5     3      2
               _gpio_pin_write_logic
 ---------------------------------------------------------------------------------
 (2) _gpio_pin_write_logic                                10     7      3     658
                                              0 COMRAM    10     7      3
 ---------------------------------------------------------------------------------
 (1) _led_init                                             5     3      2     849
                                              9 COMRAM     5     3      2
            _gpio_pin_direction_init
 ---------------------------------------------------------------------------------
 (2) _gpio_pin_direction_init                              9     7      2     354
                                              0 COMRAM     9     7      2
 ---------------------------------------------------------------------------------
 Estimated maximum stack depth 2
 ---------------------------------------------------------------------------------

 Call Graph Graphs:

 _main (ROOT)
   _led_init
     _gpio_pin_direction_init
   _led_turn_off
     _gpio_pin_write_logic
   _led_turn_on
     _gpio_pin_write_logic

 Address spaces:
Name               Size   Autos  Total    Cost      Usage
BIGRAM             F7F      0       0      40        0.0%
EEDATA             400      0       0       0        0.0%
BITBANK14          100      0       0      32        0.0%
BANK14             100      0       0      33        0.0%
BITBANK13          100      0       0      30        0.0%
BANK13             100      0       0      31        0.0%
BITBANK12          100      0       0      28        0.0%
BANK12             100      0       0      29        0.0%
BITBANK11          100      0       0      26        0.0%
BANK11             100      0       0      27        0.0%
BITBANK10          100      0       0      24        0.0%
BANK10             100      0       0      25        0.0%
BITBANK9           100      0       0      22        0.0%
BANK9              100      0       0      23        0.0%
BITBANK8           100      0       0      20        0.0%
BANK8              100      0       0      21        0.0%
BITBANK7           100      0       0      18        0.0%
BANK7              100      0       0      19        0.0%
BITBANK6           100      0       0      16        0.0%
BANK6              100      0       0      17        0.0%
BITBANK5           100      0       0      14        0.0%
BANK5              100      0       0      15        0.0%
BITBANK4           100      0       0      12        0.0%
BANK4              100      0       0      13        0.0%
BITBANK3           100      0       0      10        0.0%
BANK3              100      0       0      11        0.0%
BITBANK2           100      0       0       8        0.0%
BANK2              100      0       0       9        0.0%
BITBANK1           100      0       0       6        0.0%
BANK1              100      0       0       7        0.0%
BITBANK15           80      0       0      34        0.0%
BANK15              80      0       0      35        0.0%
BITBANK0            80      0       0       4        0.0%
BANK0               80      0       0       5        0.0%
BITCOMRAM           7F      0       0       0        0.0%
COMRAM              7F     11      37       1       43.3%
BITBIGSFRh          69      0       0      36        0.0%
BITBIGSFRlh          4      0       0      37        0.0%
BITBIGSFRll          4      0       0      38        0.0%
BIGSFR               0      0       0     200        0.0%
BITSFR               0      0       0     200        0.0%
SFR                  0      0       0     200        0.0%
STACK                0      0       0       2        0.0%
NULL                 0      0       0       0        0.0%
ABS                  0      0      37      39        0.0%
DATA                 0      0      37       3        0.0%
CODE                 0      0       0       0        0.0%


Microchip Technology PIC18 Macro Assembler V2.40 build 20220703182018 
Symbol Table                                                                                   Sat Feb 25 17:52:25 2023

                                l11 FA96                                  l22 FCE6  
                                l17 FAF6                                  l33 FC1E  
                                l28 FD4A                                  l39 FC82  
                               l100 FFFE                                 l125 FE98  
                               u600 FD62                                 u601 FD5E  
                               u530 FEB0                                 u610 FD8C  
                               u531 FEAC                                 u611 FD88  
                               u540 FEDA                                 u620 FDAA  
                               u700 FCC4                                 u541 FED6  
                               u621 FDA6                                 u701 FCC0  
                               u550 FEF8                                 u710 FCE2  
                               u551 FEF4                                 u711 FCDE  
                               u650 FA4A                                 u634 FDCE  
                               u730 FBD2                                 u651 FA46  
                               u635 FDCA                                 u731 FBCE  
                               u580 FFD2                                 u564 FF1C  
                               u660 FA74                                 u644 FE30  
                               u740 FBFC                                 u581 FFCC  
                               u565 FF18                                 u661 FA70  
                               u645 FE2C                                 u741 FBF8  
                               u725 FD36                                 u590 FFD4  
                               u574 FF7E                                 u670 FA92  
                               u750 FC1A                                 u575 FF7A  
                               u671 FA8E                                 u751 FC16  
                               u727 FD38                                 u807 FB62  
                               u817 FBA8                                 u690 FC9A  
                               u691 FC96                                 u685 FAE6  
                               u765 FC6E                                 u687 FAE8  
                               u767 FC70                                 prod 000FF3  
                               wreg 000FE8                        ?_led_turn_on 002D  
                              l1201 FEDA                                l1211 FFBA  
                              l1205 FEFC                                l1213 FFFC  
                              l1221 FD4C                                l1301 FBD2  
                              l1207 FF5E                                l1223 FD50  
                              l1311 FC5C                                l1303 FBDA  
                              l1233 FDAE                                l1241 FE96  
                              l1225 FD62                                l1313 FC5E  
                              l1305 FBFC                                l1251 FA38  
                              l1235 FE10                                l1227 FD6A  
                              l1315 FC70                                l1261 FA9A  
                              l1253 FA4A                                l1229 FD8C  
                              l1309 FC22                                l1317 FC80  
                              l1341 FB04                                l1263 FAD4  
                              l1255 FA52                                l1239 FE6C  
                              l1351 FB40                                l1343 FB10  
                              l1193 FE9A                                l1265 FAD6  
                              l1257 FA74                                l1249 FA34  
                              l1281 FCC4                                l1273 FC84  
                              l1361 FB86                                l1353 FB4C  
                              l1345 FB1C                                l1337 FAF8  
                              l1195 FE9E                                l1267 FAE8  
                              l1291 FD38                                l1275 FC88  
                              l1363 FB92                                l1355 FB58  
                              l1347 FB28                                l1339 FAF8  
                              l1197 FEB0                                l1269 FAF4  
                              l1285 FCEA                                l1293 FD48  
                              l1277 FC9A                                l1365 FB9E  
                              l1357 FB6E                                l1349 FB34  
                              l1199 FEB8                                l1375 FE80  
                              l1287 FD24                                l1279 FCA2  
                              l1359 FB7A                                l1377 FFE6  
                              l1297 FBBC                                l1289 FD26  
                              l1299 FBC0                                _LATA 000F89  
                              _LATB 000F8A                                _LATC 000F8B  
                              _LATD 000F8C                                _LATE 000F8D  
                              _Led1 0022                                _Led2 0021  
                              _Led3 0020                                _Led4 001F  
                              _main FAF8                                fsr2h 000FDA  
                              indf2 000FDF                                fsr1l 000FE1  
                              fsr2l 000FD9            ?_gpio_pin_direction_init 0023  
                              prodl 000FF3                                start 0000  
                       led_init@led 002C                         led_init@ret 002F  
                     ?_led_turn_off 002D                        ___param_bank 000000  
              _gpio_pin_write_logic FD4C                               ?_main 0023  
                             _PORTA 000F80                               _PORTB 000F81  
                             _PORTC 000F82                               _PORTD 000F83  
                             _PORTE 000F84                               _TRISA 000F92  
                             _TRISB 000F93                               _TRISC 000F94  
                             _TRISD 000F95                               _TRISE 000F96  
                             tablat 000FF5                               status 000FD8  
                    ??_led_turn_off 002F                     __initialization FA02  
                      __end_of_main FBBC               ?_gpio_pin_write_logic 0023  
                     _lat_registers 0001                              ??_main 0032  
                     __activetblptr 000002                    led_turn_on@F2884 0036  
                  __end_of_led_init FAF8                              isa$std 000001  
                     led_init@F2879 0037                        __pdataCOMRAM 0001  
                            tblptrh 000FF7                              tblptrl 000FF6  
                            tblptru 000FF8                          __accesstop 0080  
           __end_of__initialization FA2A                       ___rparam_used 000001  
            ??_gpio_pin_write_logic 0026                      __pcstackCOMRAM 0023  
              __end_of_led_turn_off FC84  gpio_pin_direction_init@_pin_config 0023  
                 led_turn_off@F2889 0035                           ?_led_init 002C  
                    _tris_registers 0015                             __Hparam 0000  
                           __Lparam 0000                             __pcinit FA02  
                           __ramtop 1000                             __ptext0 FAF8  
                           __ptext1 FC84                             __ptext2 FBBC  
                           __ptext3 FD4C                             __ptext4 FA34  
                           __ptext5 FE9A                 led_turn_off@Pin_obj 0031  
                        ??_led_init 002E                end_of_initialization FA2A  
                     __Lmediumconst 0000                             postdec1 000FE5  
                           postdec2 000FDD                             postinc0 000FEE  
                           postinc2 000FDE                        _led_turn_off FBBC  
           _gpio_pin_direction_init FE9A                       __pidataCOMRAM F9E0  
               start_initialization FA02                       ??_led_turn_on 002F  
                   led_turn_off@led 002D                     led_turn_off@ret 0030  
                       __pbssCOMRAM 0034                 __end_of_led_turn_on FD4C  
         ??_gpio_pin_direction_init 0025     gpio_pin_write_logic@_pin_config 0023  
         gpio_pin_write_logic@logic 0025                  led_turn_on@Pin_obj 0031  
   __end_of_gpio_pin_direction_init 0000                         _led_turn_on FC84  
           gpio_pin_write_logic@ret 002C                           copy_data0 FA16  
                    led_turn_on@led 002D                      led_turn_on@ret 0030  
                          __Hrparam 0000                            __Lrparam 0000  
                          _led_init FA34                            isa$xinst 000000  
      __end_of_gpio_pin_write_logic FE9A               led_toggle_state@F2894 0034  
                   led_init@Pin_obj 0030                      _port_registers 000B  
        gpio_pin_direction_init@ret 002B  
