

Microchip MPLAB XC8 Assembler V2.40 build 20220703182018 
                                                                                               Thu Apr 06 11:23:19 2023

Microchip MPLAB XC8 C Compiler v2.40 (Free license) build 20220703182018 Og1 
     1                           	processor	18F4620
     2                           	fnconf	rparam,??,?,0
     3                           	pagewidth 120
     4                           	opt	flic
     5                           	psect	idataCOMRAM,global,class=CODE,delta=1,noexec
     6                           	psect	smallconst,global,reloc=2,class=SMALLCONST,delta=1,noexec
     7                           	psect	cinit,global,reloc=2,class=CODE,delta=1
     8                           	psect	bssCOMRAM,global,class=COMRAM,space=1,delta=1,lowdata,noexec
     9                           	psect	dataCOMRAM,global,class=COMRAM,space=1,delta=1,lowdata,noexec
    10                           	psect	cstackCOMRAM,global,class=COMRAM,space=1,delta=1,lowdata,noexec
    11                           	psect	text0,global,reloc=2,class=CODE,delta=1
    12                           	psect	text1,global,reloc=2,class=CODE,delta=1
    13                           	psect	text2,global,reloc=2,class=CODE,delta=1
    14                           	psect	text3,global,reloc=2,class=CODE,delta=1
    15                           	psect	text4,global,reloc=2,class=CODE,delta=1
    16                           	psect	text5,global,reloc=2,class=CODE,delta=1
    17                           	psect	text6,global,reloc=2,class=CODE,delta=1
    18                           	psect	text7,global,reloc=2,class=CODE,delta=1
    19                           	psect	text8,global,reloc=2,class=CODE,delta=1
    20                           	psect	text9,global,reloc=2,class=CODE,delta=1
    21                           	psect	text10,global,reloc=2,class=CODE,delta=1
    22                           	psect	text11,global,reloc=2,class=CODE,delta=1
    23                           	psect	text12,global,reloc=2,class=CODE,delta=1
    24                           	psect	text13,global,reloc=2,class=CODE,delta=1
    25                           	psect	text14,global,reloc=2,class=CODE,delta=1
    26                           	psect	text15,global,reloc=2,class=CODE,delta=1
    27                           	psect	intcodelo,global,reloc=2,class=CODE,delta=1
    28                           	psect	intcode,global,reloc=2,class=CODE,delta=1
    29                           	psect	intcode_body,global,reloc=2,class=CODE,delta=1
    30                           	psect	intsave_regs,global,class=BIGRAM,space=1,delta=1,noexec
    31                           	psect	rparam,global,class=COMRAM,space=1,delta=1,noexec
    32                           	psect	temp,global,ovrld,common,class=COMRAM,space=1,delta=1
    33                           	psect	idloc,global,abs,ovrld,class=IDLOC,space=5,delta=1,noexec
    34                           	psect	config,global,abs,ovrld,class=CONFIG,space=4,delta=1,noexec
    35   000000                     
    36                           ; Version 2.40
    37                           ; Generated 17/11/2021 GMT
    38                           ; 
    39                           ; Copyright © 2021, Microchip Technology Inc. and its subsidiaries ("Microchip")
    40                           ; All rights reserved.
    41                           ; 
    42                           ; This software is developed by Microchip Technology Inc. and its subsidiaries ("Microch
      +                          ip").
    43                           ; 
    44                           ; Redistribution and use in source and binary forms, with or without modification, are
    45                           ; permitted provided that the following conditions are met:
    46                           ; 
    47                           ;     1. Redistributions of source code must retain the above copyright notice, this lis
      +                          t of
    48                           ;        conditions and the following disclaimer.
    49                           ; 
    50                           ;     2. Redistributions in binary form must reproduce the above copyright notice, this 
      +                          list
    51                           ;        of conditions and the following disclaimer in the documentation and/or other
    52                           ;        materials provided with the distribution. Publication is not required when
    53                           ;        this file is used in an embedded application.
    54                           ; 
    55                           ;     3. Microchip's name may not be used to endorse or promote products derived from th
      +                          is
    56                           ;        software without specific prior written permission.
    57                           ; 
    58                           ; THIS SOFTWARE IS PROVIDED BY MICROCHIP "AS IS" AND ANY EXPRESS OR IMPLIED WARRANTIES,
    59                           ; INCLUDING, BUT NOT LIMITED TO, THE IMPLIED WARRANTIES OF MERCHANTABILITY AND FITNESS F
      +                          OR
    60                           ; PURPOSE ARE DISCLAIMED.  IN NO EVENT SHALL MICROCHIP BE LIABLE FOR ANY DIRECT, INDIREC
      +                          T,
    61                           ; INCIDENTAL, SPECIAL, EXEMPLARY, OR CONSEQUENTIAL DAMAGES (INCLUDING BUT NOT LIMITED TO
    62                           ; PROCUREMENT OF SUBSTITUTE GOODS OR SERVICES; LOSS OF USE, DATA OR PROFITS; OR BUSINESS
    63                           ; INTERRUPTION) HOWSOEVER CAUSED AND ON ANY THEORY OF LIABILITY, WHETHER IN CONTRACT, ST
      +                          RICT
    64                           ; LIABILITY, OR TORT (INCLUDING NEGLIGENCE OR OTHERWISE) ARISING IN ANY WAY OUT OF THE U
      +                          SE OF
    65                           ; THIS SOFTWARE, EVEN IF ADVISED OF THE POSSIBILITY OF SUCH DAMAGE.
    66                           ; 
    67                           ; 
    68                           ; Code-generator required, PIC18F4620 Definitions
    69                           ; 
    70                           ; SFR Addresses
    71   000000                     
    72 ;; Function _ISR_BUTTON_INT0 is unused but had its address taken
    73   000000                     
    74                           	psect	idataCOMRAM
    75   00198A                     __pidataCOMRAM:
    76                           	callstack 0
    77                           
    78                           ;initializer for _lat_registers
    79   00198A  89                 	db	137
    80   00198B  0F                 	db	15
    81   00198C  8A                 	db	138
    82   00198D  0F                 	db	15
    83   00198E  8B                 	db	139
    84   00198F  0F                 	db	15
    85   001990  8C                 	db	140
    86   001991  0F                 	db	15
    87   001992  8D                 	db	141
    88   001993  0F                 	db	15
    89                           
    90                           ;initializer for _port_registers
    91   001994  80                 	db	128
    92   001995  0F                 	db	15
    93   001996  81                 	db	129
    94   001997  0F                 	db	15
    95   001998  82                 	db	130
    96   001999  0F                 	db	15
    97   00199A  83                 	db	131
    98   00199B  0F                 	db	15
    99   00199C  84                 	db	132
   100   00199D  0F                 	db	15
   101                           
   102                           ;initializer for _tris_registers
   103   00199E  92                 	db	146
   104   00199F  0F                 	db	15
   105   0019A0  93                 	db	147
   106   0019A1  0F                 	db	15
   107   0019A2  94                 	db	148
   108   0019A3  0F                 	db	15
   109   0019A4  95                 	db	149
   110   0019A5  0F                 	db	15
   111   0019A6  96                 	db	150
   112   0019A7  0F                 	db	15
   113                           
   114                           ;initializer for _INT0_INTERRUPT
   115   0019A8  01                 	db	1
   116   0019A9  00                 	db	0
   117   0019AA  01                 	db	1
   118   0019AB  41                 	db	65
   119   0019AC  00                 	db	0
   120   0019AD  00                 	db	0
   121                           
   122                           ;initializer for _led2
   123   0019AE  0A                 	db	10
   124                           
   125                           ;initializer for _led1
   126   0019AF  02                 	db	2
   127                           
   128                           	psect	smallconst
   129   001000                     __psmallconst:
   130                           	callstack 0
   131   001000  00                 	db	0
   132   001001  37                 	db	55
   133   001002  38                 	db	56
   134   001003  39                 	db	57
   135   001004  2F                 	db	47
   136   001005  34                 	db	52
   137   001006  35                 	db	53
   138   001007  36                 	db	54
   139   001008  2A                 	db	42
   140   001009  31                 	db	49
   141   00100A  32                 	db	50
   142   00100B  33                 	db	51
   143   00100C  2D                 	db	45
   144   00100D  23                 	db	35
   145   00100E  30                 	db	48
   146   00100F  3D                 	db	61
   147   001010  2B                 	db	43
   148   001011                     __end_of_button_Values:
   149                           	callstack 0
   150   000000                     _INTCON2bits	set	4081
   151   000000                     _ZERO	set	32450
   152   000000                     _LATA	set	3977
   153   000000                     _PORTE	set	3972
   154   000000                     _PORTD	set	3971
   155   000000                     _PORTC	set	3970
   156   000000                     _PORTB	set	3969
   157   000000                     _PORTA	set	3968
   158   000000                     _TRISA	set	3986
   159   000000                     _INTCON3bits	set	4080
   160   000000                     _INTCONbits	set	4082
   161   000000                     _RCONbits	set	4048
   162   000000                     _TRISE	set	3990
   163   000000                     _TRISD	set	3989
   164   000000                     _TRISC	set	3988
   165   000000                     _TRISB	set	3987
   166   000000                     _LATE	set	3981
   167   000000                     _LATD	set	3980
   168   000000                     _LATC	set	3979
   169   000000                     _LATB	set	3978
   170   001011  00                 	db	0	; dummy byte at the end
   171   000000                     
   172                           ; #config settings
   173                           
   174                           	psect	cinit
   175   0018A6                     __pcinit:
   176                           	callstack 0
   177   0018A6                     start_initialization:
   178                           	callstack 0
   179   0018A6                     __initialization:
   180                           	callstack 0
   181                           
   182                           ; Initialize objects allocated to COMRAM (38 bytes)
   183                           ; load TBLPTR registers with __pidataCOMRAM
   184   0018A6  0E8A               	movlw	low __pidataCOMRAM
   185   0018A8  6EF6               	movwf	tblptrl,c
   186   0018AA  0E19               	movlw	high __pidataCOMRAM
   187   0018AC  6EF7               	movwf	tblptrh,c
   188   0018AE  0E00               	movlw	low (__pidataCOMRAM shr (0+16))
   189   0018B0  6EF8               	movwf	tblptru,c
   190   0018B2  EE00  F001         	lfsr	0,__pdataCOMRAM
   191   0018B6  EE10 F026          	lfsr	1,38
   192   0018BA                     copy_data0:
   193   0018BA  0009               	tblrd		*+
   194   0018BC  CFF5 FFEE          	movff	tablat,postinc0
   195   0018C0  50E5               	movf	postdec1,w,c
   196   0018C2  50E1               	movf	fsr1l,w,c
   197   0018C4  E1FA               	bnz	copy_data0
   198                           
   199                           ; Clear objects allocated to COMRAM (15 bytes)
   200   0018C6  EE00  F03A         	lfsr	0,__pbssCOMRAM
   201   0018CA  0E0F               	movlw	15
   202   0018CC                     clear_0:
   203   0018CC  6AEE               	clrf	postinc0,c
   204   0018CE  06E8               	decf	wreg,f,c
   205   0018D0  E1FD               	bnz	clear_0
   206   0018D2                     end_of_initialization:
   207                           	callstack 0
   208   0018D2                     __end_of__initialization:
   209                           	callstack 0
   210   0018D2  9049               	bcf	int$flags,0,c	;clear compiler interrupt flag (level 1)
   211   0018D4  9249               	bcf	int$flags,1,c	;clear compiler interrupt flag (level 2)
   212   0018D6  0100               	movlb	0
   213   0018D8  EF1B  F00C         	goto	_main	;jump to C main() function
   214                           
   215                           	psect	bssCOMRAM
   216   00003A                     __pbssCOMRAM:
   217                           	callstack 0
   218   00003A                     _Int2_Interrupt_Handller:
   219                           	callstack 0
   220   00003A                     	ds	2
   221   00003C                     _Int1_Interrupt_Handller:
   222                           	callstack 0
   223   00003C                     	ds	2
   224   00003E                     _Int0_Interrupt_Handller:
   225                           	callstack 0
   226   00003E                     	ds	2
   227   000040                     Relay_TurnOff@F2883:
   228                           	callstack 0
   229   000040                     	ds	1
   230   000041                     Relay_TurnOn@F2878:
   231                           	callstack 0
   232   000041                     	ds	1
   233   000042                     Relay_init@F2873:
   234                           	callstack 0
   235   000042                     	ds	1
   236   000043                     led_toggle_state@F2894:
   237                           	callstack 0
   238   000043                     	ds	1
   239   000044                     led_turn_off@F2889:
   240                           	callstack 0
   241   000044                     	ds	1
   242   000045                     led_turn_on@F2884:
   243                           	callstack 0
   244   000045                     	ds	1
   245   000046                     led_init@F2879:
   246                           	callstack 0
   247   000046                     	ds	1
   248   000047                     _pin2:
   249                           	callstack 0
   250   000047                     	ds	1
   251   000048                     _pin1:
   252                           	callstack 0
   253   000048                     	ds	1
   254                           
   255                           	psect	dataCOMRAM
   256   000001                     __pdataCOMRAM:
   257                           	callstack 0
   258   000001                     _lat_registers:
   259                           	callstack 0
   260   000001                     	ds	10
   261   00000B                     _port_registers:
   262                           	callstack 0
   263   00000B                     	ds	10
   264   000015                     _tris_registers:
   265                           	callstack 0
   266   000015                     	ds	10
   267   00001F                     _INT0_INTERRUPT:
   268                           	callstack 0
   269   00001F                     	ds	6
   270   000025                     _led2:
   271                           	callstack 0
   272   000025                     	ds	1
   273   000026                     _led1:
   274                           	callstack 0
   275   000026                     	ds	1
   276                           
   277                           	psect	cstackCOMRAM
   278   000027                     __pcstackCOMRAM:
   279                           	callstack 0
   280   000027                     ??_InterruptMangerLow:
   281   000027                     
   282                           ; 2 bytes @ 0x0
   283   000027                     	ds	2
   284   000029                     gpio_pin_direction_init@_pin_config:
   285                           	callstack 0
   286   000029                     gpio_pin_toggle_logic@_pin_config:
   287                           	callstack 0
   288   000029                     Interrupt_INTx_Enable@Int_Obj:
   289                           	callstack 0
   290   000029                     Interrupt_INTx_Disable@Int_Obj:
   291                           	callstack 0
   292   000029                     Interrupt_INTx_Priority_Init@Int_Obj:
   293                           	callstack 0
   294   000029                     Interrupt_INTx_Edge_Init@Int_Obj:
   295                           	callstack 0
   296   000029                     Interrupt_INTx_Clear_Flag@Int_Obj:
   297                           	callstack 0
   298   000029                     Set_INT0_Interrupt_Handller@Int_Interrupt_Handller:
   299                           	callstack 0
   300   000029                     Set_INT1_Interrupt_Handller@Int_Interrupt_Handller:
   301                           	callstack 0
   302   000029                     Set_INT2_Interrupt_Handller@Int_Interrupt_Handller:
   303                           	callstack 0
   304                           
   305                           ; 2 bytes @ 0x2
   306   000029                     	ds	2
   307   00002B                     ??_gpio_pin_direction_init:
   308   00002B                     ??_gpio_pin_toggle_logic:
   309   00002B                     ??_Interrupt_INTx_Disable:
   310   00002B                     ??_Interrupt_INTx_Clear_Flag:
   311   00002B                     ??_Interrupt_INTx_Priority_Init:
   312   00002B                     ??_Interrupt_INTx_Edge_Init:
   313   00002B                     ??_Interrupt_INTx_Enable:
   314   00002B                     Set_INT0_Interrupt_Handller@ret:
   315                           	callstack 0
   316   00002B                     Set_INT1_Interrupt_Handller@ret:
   317                           	callstack 0
   318   00002B                     Set_INT2_Interrupt_Handller@ret:
   319                           	callstack 0
   320                           
   321                           ; 1 bytes @ 0x4
   322   00002B                     	ds	1
   323   00002C                     Set_INTx_Interrupt_Handller@Int_Obj:
   324                           	callstack 0
   325                           
   326                           ; 2 bytes @ 0x5
   327   00002C                     	ds	1
   328   00002D                     Interrupt_INTx_Enable@ret:
   329                           	callstack 0
   330   00002D                     Interrupt_INTx_Disable@ret:
   331                           	callstack 0
   332   00002D                     Interrupt_INTx_Clear_Flag@ret:
   333                           	callstack 0
   334                           
   335                           ; 1 bytes @ 0x6
   336   00002D                     	ds	1
   337   00002E                     ??_Set_INTx_Interrupt_Handller:
   338                           
   339                           ; 1 bytes @ 0x7
   340   00002E                     	ds	2
   341   000030                     gpio_pin_toggle_logic@ret:
   342                           	callstack 0
   343   000030                     Set_INTx_Interrupt_Handller@ret:
   344                           	callstack 0
   345                           
   346                           ; 1 bytes @ 0x9
   347   000030                     	ds	1
   348   000031                     gpio_pin_direction_init@ret:
   349                           	callstack 0
   350   000031                     led_toggle_state@led:
   351                           	callstack 0
   352                           
   353                           ; 2 bytes @ 0xA
   354   000031                     	ds	1
   355   000032                     led_init@led:
   356                           	callstack 0
   357   000032                     Interrupt_INTx_Pin_Init@Int_Obj:
   358                           	callstack 0
   359                           
   360                           ; 2 bytes @ 0xB
   361   000032                     	ds	1
   362   000033                     ??_led_toggle_state:
   363                           
   364                           ; 1 bytes @ 0xC
   365   000033                     	ds	1
   366   000034                     ??_led_init:
   367   000034                     led_toggle_state@ret:
   368                           	callstack 0
   369   000034                     Interrupt_INTx_Pin_Init@ret:
   370                           	callstack 0
   371                           
   372                           ; 1 bytes @ 0xD
   373   000034                     	ds	1
   374   000035                     led_init@ret:
   375                           	callstack 0
   376   000035                     led_toggle_state@Pin_obj:
   377                           	callstack 0
   378   000035                     Interrupt_INTx_Init@Int_Obj:
   379                           	callstack 0
   380                           
   381                           ; 2 bytes @ 0xE
   382   000035                     	ds	1
   383   000036                     led_init@Pin_obj:
   384                           	callstack 0
   385                           
   386                           ; 1 bytes @ 0xF
   387   000036                     	ds	1
   388   000037                     Interrupt_INTx_Init@ret:
   389                           	callstack 0
   390                           
   391                           ; 1 bytes @ 0x10
   392   000037                     	ds	1
   393   000038                     ??_main:
   394                           
   395                           ; 1 bytes @ 0x11
   396   000038                     	ds	2
   397                           
   398 ;;
   399 ;;Main: autosize = 0, tempsize = 2, incstack = 0, save=0
   400 ;;
   401 ;; *************** function _main *****************
   402 ;; Defined at:
   403 ;;		line 34 in file "Application.c"
   404 ;; Parameters:    Size  Location     Type
   405 ;;		None
   406 ;; Auto vars:     Size  Location     Type
   407 ;;  ret             1    0        unsigned char 
   408 ;; Return value:  Size  Location     Type
   409 ;;                  2  455[None  ] int 
   410 ;; Registers used:
   411 ;;		wreg, fsr2l, fsr2h, status,2, status,0, prodl, prodh, cstack
   412 ;; Tracked objects:
   413 ;;		On entry : 0/0
   414 ;;		On exit  : 0/0
   415 ;;		Unchanged: 0/0
   416 ;; Data sizes:     COMRAM   BANK0   BANK1   BANK2   BANK3   BANK4   BANK5   BANK6   BANK7   BANK8   BANK9  BANK10  BANK1
      +1  BANK12  BANK13  BANK14  BANK15
   417 ;;      Params:         0       0       0       0       0       0       0       0       0       0       0       0       
      +0       0       0       0       0
   418 ;;      Locals:         0       0       0       0       0       0       0       0       0       0       0       0       
      +0       0       0       0       0
   419 ;;      Temps:          2       0       0       0       0       0       0       0       0       0       0       0       
      +0       0       0       0       0
   420 ;;      Totals:         2       0       0       0       0       0       0       0       0       0       0       0       
      +0       0       0       0       0
   421 ;;Total ram usage:        2 bytes
   422 ;; Hardware stack levels required when called: 5
   423 ;; This function calls:
   424 ;;		_Interrupt_INTx_Init
   425 ;;		_led_init
   426 ;;		_led_toggle_state
   427 ;; This function is called by:
   428 ;;		Startup code after reset
   429 ;; This function uses a non-reentrant model
   430 ;;
   431                           
   432                           	psect	text0
   433   001836                     __ptext0:
   434                           	callstack 0
   435   001836                     _main:
   436                           	callstack 26
   437   001836  0E26               	movlw	low _led1
   438   001838  6E32               	movwf	led_init@led^0,c
   439   00183A  0E00               	movlw	high _led1
   440   00183C  6E33               	movwf	(led_init@led+1)^0,c
   441   00183E  EC1C  F00A         	call	_led_init	;wreg free
   442   001842  0E25               	movlw	low _led2
   443   001844  6E32               	movwf	led_init@led^0,c
   444   001846  0E00               	movlw	high _led2
   445   001848  6E33               	movwf	(led_init@led+1)^0,c
   446   00184A  EC1C  F00A         	call	_led_init	;wreg free
   447   00184E  0E1F               	movlw	low _INT0_INTERRUPT
   448   001850  6E35               	movwf	Interrupt_INTx_Init@Int_Obj^0,c
   449   001852  0E00               	movlw	high _INT0_INTERRUPT
   450   001854  6E36               	movwf	(Interrupt_INTx_Init@Int_Obj+1)^0,c
   451   001856  EC6D  F00B         	call	_Interrupt_INTx_Init	;wreg free
   452   00185A                     l3016:
   453   00185A  0E26               	movlw	low _led1
   454   00185C  6E31               	movwf	led_toggle_state@led^0,c
   455   00185E  0E00               	movlw	high _led1
   456   001860  6E32               	movwf	(led_toggle_state@led+1)^0,c
   457   001862  ECBB  F009         	call	_led_toggle_state	;wreg free
   458   001866                     
   459                           ;Application.c: 42:         _delay((unsigned long)((500)*(4000000UL/4000.0)));
   460   001866  0E03               	movlw	3
   461   001868  6E39               	movwf	(??_main+1)^0,c
   462   00186A  0E8A               	movlw	138
   463   00186C  6E38               	movwf	??_main^0,c
   464   00186E  0E56               	movlw	86
   465   001870                     u1657:
   466   001870  2EE8               	decfsz	wreg,f,c
   467   001872  D7FE               	bra	u1657
   468   001874  2E38               	decfsz	??_main^0,f,c
   469   001876  D7FC               	bra	u1657
   470   001878  2E39               	decfsz	(??_main+1)^0,f,c
   471   00187A  D7FA               	bra	u1657
   472   00187C  0E26               	movlw	low _led1
   473   00187E  6E31               	movwf	led_toggle_state@led^0,c
   474   001880  0E00               	movlw	high _led1
   475   001882  6E32               	movwf	(led_toggle_state@led+1)^0,c
   476   001884  ECBB  F009         	call	_led_toggle_state	;wreg free
   477   001888                     
   478                           ;Application.c: 44:         _delay((unsigned long)((500)*(4000000UL/4000.0)));
   479   001888  0E03               	movlw	3
   480   00188A  6E39               	movwf	(??_main+1)^0,c
   481   00188C  0E8A               	movlw	138
   482   00188E  6E38               	movwf	??_main^0,c
   483   001890  0E56               	movlw	86
   484   001892                     u1667:
   485   001892  2EE8               	decfsz	wreg,f,c
   486   001894  D7FE               	bra	u1667
   487   001896  2E38               	decfsz	??_main^0,f,c
   488   001898  D7FC               	bra	u1667
   489   00189A  2E39               	decfsz	(??_main+1)^0,f,c
   490   00189C  D7FA               	bra	u1667
   491   00189E  EF2D  F00C         	goto	l3016
   492   0018A2  EF1F  F000         	goto	start
   493   0018A6                     __end_of_main:
   494                           	callstack 0
   495                           
   496 ;; *************** function _led_toggle_state *****************
   497 ;; Defined at:
   498 ;;		line 110 in file "ECU_LAYER/LED/ECU_LED.c"
   499 ;; Parameters:    Size  Location     Type
   500 ;;  led             2   10[COMRAM] PTR const struct .
   501 ;;		 -> led1(1), led2(1), 
   502 ;; Auto vars:     Size  Location     Type
   503 ;;  Pin_obj         1   14[COMRAM] struct .
   504 ;;  ret             1   13[COMRAM] unsigned char 
   505 ;; Return value:  Size  Location     Type
   506 ;;                  1    wreg      unsigned char 
   507 ;; Registers used:
   508 ;;		wreg, fsr2l, fsr2h, status,2, status,0, prodl, prodh, cstack
   509 ;; Tracked objects:
   510 ;;		On entry : 0/0
   511 ;;		On exit  : 0/0
   512 ;;		Unchanged: 0/0
   513 ;; Data sizes:     COMRAM   BANK0   BANK1   BANK2   BANK3   BANK4   BANK5   BANK6   BANK7   BANK8   BANK9  BANK10  BANK1
      +1  BANK12  BANK13  BANK14  BANK15
   514 ;;      Params:         2       0       0       0       0       0       0       0       0       0       0       0       
      +0       0       0       0       0
   515 ;;      Locals:         2       0       0       0       0       0       0       0       0       0       0       0       
      +0       0       0       0       0
   516 ;;      Temps:          1       0       0       0       0       0       0       0       0       0       0       0       
      +0       0       0       0       0
   517 ;;      Totals:         5       0       0       0       0       0       0       0       0       0       0       0       
      +0       0       0       0       0
   518 ;;Total ram usage:        5 bytes
   519 ;; Hardware stack levels used: 1
   520 ;; Hardware stack levels required when called: 3
   521 ;; This function calls:
   522 ;;		_gpio_pin_toggle_logic
   523 ;; This function is called by:
   524 ;;		_main
   525 ;;		_ISR_BUTTON_INT0
   526 ;; This function uses a non-reentrant model
   527 ;;
   528                           
   529                           	psect	text1
   530   001376                     __ptext1:
   531                           	callstack 0
   532   001376                     _led_toggle_state:
   533                           	callstack 27
   534   001376                     
   535                           ;ECU_LAYER/LED/ECU_LED.c: 112:     if(((void*)0) == led)
   536   001376  5031               	movf	led_toggle_state@led^0,w,c
   537   001378  1032               	iorwf	(led_toggle_state@led+1)^0,w,c
   538   00137A  A4D8               	btfss	status,2,c
   539   00137C  EFC2  F009         	goto	u1441
   540   001380  EFC4  F009         	goto	u1440
   541   001384                     u1441:
   542   001384  EFC8  F009         	goto	l2772
   543   001388                     u1440:
   544   001388                     l2770:
   545                           
   546                           ;ECU_LAYER/LED/ECU_LED.c: 113:     {;ECU_LAYER/LED/ECU_LED.c: 114:        ret = (Std_Ret
      +                          urnType)0x00 ;
   547   001388  0E00               	movlw	0
   548   00138A  6E34               	movwf	led_toggle_state@ret^0,c
   549                           
   550                           ;ECU_LAYER/LED/ECU_LED.c: 115:     }
   551   00138C  EF1A  F00A         	goto	l2786
   552   001390                     l2772:
   553   001390  C031  FFD9         	movff	led_toggle_state@led,fsr2l
   554   001394  C032  FFDA         	movff	led_toggle_state@led+1,fsr2h
   555   001398  30DF               	rrcf	223,w,c
   556   00139A  32E8               	rrcf	wreg,f,c
   557   00139C  32E8               	rrcf	wreg,f,c
   558   00139E  0B07               	andlw	7
   559   0013A0  6E33               	movwf	??_led_toggle_state^0,c
   560   0013A2  0E08               	movlw	8
   561   0013A4  6033               	cpfslt	??_led_toggle_state^0,c
   562   0013A6  EFD7  F009         	goto	u1451
   563   0013AA  EFD9  F009         	goto	u1450
   564   0013AE                     u1451:
   565   0013AE  EFC4  F009         	goto	l2770
   566   0013B2                     u1450:
   567   0013B2  C031  FFD9         	movff	led_toggle_state@led,fsr2l
   568   0013B6  C032  FFDA         	movff	led_toggle_state@led+1,fsr2h
   569   0013BA  50DF               	movf	223,w,c
   570   0013BC  0B07               	andlw	7
   571   0013BE  6E33               	movwf	??_led_toggle_state^0,c
   572   0013C0  0E03               	movlw	3
   573   0013C2  6433               	cpfsgt	??_led_toggle_state^0,c
   574   0013C4  EFE6  F009         	goto	u1461
   575   0013C8  EFE8  F009         	goto	u1460
   576   0013CC                     u1461:
   577   0013CC  EFEA  F009         	goto	l247
   578   0013D0                     u1460:
   579   0013D0  EFC4  F009         	goto	l2770
   580   0013D4                     l247:
   581                           
   582                           ;ECU_LAYER/LED/ECU_LED.c: 121:     {;ECU_LAYER/LED/ECU_LED.c: 122:         pinConfig_t P
      +                          in_obj = {
   583   0013D4  C043  F035         	movff	led_toggle_state@F2894,led_toggle_state@Pin_obj
   584   0013D8  C031  FFD9         	movff	led_toggle_state@led,fsr2l
   585   0013DC  C032  FFDA         	movff	led_toggle_state@led+1,fsr2h
   586   0013E0  50DF               	movf	223,w,c
   587   0013E2  0B07               	andlw	7
   588   0013E4  6E33               	movwf	??_led_toggle_state^0,c
   589   0013E6  5035               	movf	led_toggle_state@Pin_obj^0,w,c
   590   0013E8  1833               	xorwf	??_led_toggle_state^0,w,c
   591   0013EA  0BF8               	andlw	-8
   592   0013EC  1833               	xorwf	??_led_toggle_state^0,w,c
   593   0013EE  6E35               	movwf	led_toggle_state@Pin_obj^0,c
   594   0013F0  C031  FFD9         	movff	led_toggle_state@led,fsr2l
   595   0013F4  C032  FFDA         	movff	led_toggle_state@led+1,fsr2h
   596   0013F8  30DF               	rrcf	223,w,c
   597   0013FA  32E8               	rrcf	wreg,f,c
   598   0013FC  32E8               	rrcf	wreg,f,c
   599   0013FE  0B07               	andlw	7
   600   001400  6E33               	movwf	??_led_toggle_state^0,c
   601   001402  4633               	rlncf	??_led_toggle_state^0,f,c
   602   001404  4633               	rlncf	??_led_toggle_state^0,f,c
   603   001406  4633               	rlncf	??_led_toggle_state^0,f,c
   604   001408  5035               	movf	led_toggle_state@Pin_obj^0,w,c
   605   00140A  1833               	xorwf	??_led_toggle_state^0,w,c
   606   00140C  0BC7               	andlw	-57
   607   00140E  1833               	xorwf	??_led_toggle_state^0,w,c
   608   001410  6E35               	movwf	led_toggle_state@Pin_obj^0,c
   609   001412  9C35               	bcf	led_toggle_state@Pin_obj^0,6,c
   610   001414  C031  FFD9         	movff	led_toggle_state@led,fsr2l
   611   001418  C032  FFDA         	movff	led_toggle_state@led+1,fsr2h
   612   00141C  ACDF               	btfss	indf2,6,c
   613   00141E  D002               	bra	u1475
   614   001420  8E35               	bsf	led_toggle_state@Pin_obj^0,7,c
   615   001422  D001               	bra	u1477
   616   001424                     u1475:
   617   001424  9E35               	bcf	led_toggle_state@Pin_obj^0,7,c
   618   001426                     u1477:
   619   001426                     
   620                           ;ECU_LAYER/LED/ECU_LED.c: 128:         ret = gpio_pin_toggle_logic(&Pin_obj);
   621   001426  0E35               	movlw	low led_toggle_state@Pin_obj
   622   001428  6E29               	movwf	gpio_pin_toggle_logic@_pin_config^0,c
   623   00142A  0E00               	movlw	high led_toggle_state@Pin_obj
   624   00142C  6E2A               	movwf	(gpio_pin_toggle_logic@_pin_config+1)^0,c
   625   00142E  EC7D  F00A         	call	_gpio_pin_toggle_logic	;wreg free
   626   001432  6E34               	movwf	led_toggle_state@ret^0,c
   627   001434                     l2786:
   628                           
   629                           ;ECU_LAYER/LED/ECU_LED.c: 130:     return ret ;
   630   001434  5034               	movf	led_toggle_state@ret^0,w,c
   631   001436  0012               	return		;funcret
   632   001438                     __end_of_led_toggle_state:
   633                           	callstack 0
   634                           
   635 ;; *************** function _gpio_pin_toggle_logic *****************
   636 ;; Defined at:
   637 ;;		line 145 in file "MCAL_LAYER/GPIO/HAL_GPIO.c"
   638 ;; Parameters:    Size  Location     Type
   639 ;;  _pin_config     2    2[COMRAM] PTR const struct .
   640 ;;		 -> led_toggle_state@Pin_obj(1), 
   641 ;; Auto vars:     Size  Location     Type
   642 ;;  ret             1    9[COMRAM] unsigned char 
   643 ;; Return value:  Size  Location     Type
   644 ;;                  1    wreg      unsigned char 
   645 ;; Registers used:
   646 ;;		wreg, fsr2l, fsr2h, status,2, status,0, prodl, prodh
   647 ;; Tracked objects:
   648 ;;		On entry : 0/0
   649 ;;		On exit  : 0/0
   650 ;;		Unchanged: 0/0
   651 ;; Data sizes:     COMRAM   BANK0   BANK1   BANK2   BANK3   BANK4   BANK5   BANK6   BANK7   BANK8   BANK9  BANK10  BANK1
      +1  BANK12  BANK13  BANK14  BANK15
   652 ;;      Params:         2       0       0       0       0       0       0       0       0       0       0       0       
      +0       0       0       0       0
   653 ;;      Locals:         1       0       0       0       0       0       0       0       0       0       0       0       
      +0       0       0       0       0
   654 ;;      Temps:          5       0       0       0       0       0       0       0       0       0       0       0       
      +0       0       0       0       0
   655 ;;      Totals:         8       0       0       0       0       0       0       0       0       0       0       0       
      +0       0       0       0       0
   656 ;;Total ram usage:        8 bytes
   657 ;; Hardware stack levels used: 1
   658 ;; Hardware stack levels required when called: 2
   659 ;; This function calls:
   660 ;;		Nothing
   661 ;; This function is called by:
   662 ;;		_led_toggle_state
   663 ;; This function uses a non-reentrant model
   664 ;;
   665                           
   666                           	psect	text2
   667   0014FA                     __ptext2:
   668                           	callstack 0
   669   0014FA                     _gpio_pin_toggle_logic:
   670                           	callstack 27
   671   0014FA                     
   672                           ;MCAL_LAYER/GPIO/HAL_GPIO.c: 146:     Std_ReturnType ret = (Std_ReturnType)0x01 ;
   673   0014FA  0E01               	movlw	1
   674   0014FC  6E30               	movwf	gpio_pin_toggle_logic@ret^0,c
   675   0014FE                     
   676                           ;MCAL_LAYER/GPIO/HAL_GPIO.c: 147:     if(((void*)0) == _pin_config)
   677   0014FE  5029               	movf	gpio_pin_toggle_logic@_pin_config^0,w,c
   678   001500  102A               	iorwf	(gpio_pin_toggle_logic@_pin_config+1)^0,w,c
   679   001502  A4D8               	btfss	status,2,c
   680   001504  EF86  F00A         	goto	u1291
   681   001508  EF88  F00A         	goto	u1290
   682   00150C                     u1291:
   683   00150C  EF8C  F00A         	goto	l2564
   684   001510                     u1290:
   685   001510                     l2562:
   686                           
   687                           ;MCAL_LAYER/GPIO/HAL_GPIO.c: 148:     {;MCAL_LAYER/GPIO/HAL_GPIO.c: 149:        ret = (S
      +                          td_ReturnType)0x00 ;
   688   001510  0E00               	movlw	0
   689   001512  6E30               	movwf	gpio_pin_toggle_logic@ret^0,c
   690                           
   691                           ;MCAL_LAYER/GPIO/HAL_GPIO.c: 150:     }
   692   001514  EFDA  F00A         	goto	l2572
   693   001518                     l2564:
   694   001518  C029  FFD9         	movff	gpio_pin_toggle_logic@_pin_config,fsr2l
   695   00151C  C02A  FFDA         	movff	gpio_pin_toggle_logic@_pin_config+1,fsr2h
   696   001520  30DF               	rrcf	223,w,c
   697   001522  32E8               	rrcf	wreg,f,c
   698   001524  32E8               	rrcf	wreg,f,c
   699   001526  0B07               	andlw	7
   700   001528  6E2B               	movwf	??_gpio_pin_toggle_logic^0,c
   701   00152A  0E08               	movlw	8
   702   00152C  602B               	cpfslt	??_gpio_pin_toggle_logic^0,c
   703   00152E  EF9B  F00A         	goto	u1301
   704   001532  EF9D  F00A         	goto	u1300
   705   001536                     u1301:
   706   001536  EF88  F00A         	goto	l2562
   707   00153A                     u1300:
   708   00153A  C029  FFD9         	movff	gpio_pin_toggle_logic@_pin_config,fsr2l
   709   00153E  C02A  FFDA         	movff	gpio_pin_toggle_logic@_pin_config+1,fsr2h
   710   001542  50DF               	movf	223,w,c
   711   001544  0B07               	andlw	7
   712   001546  6E2B               	movwf	??_gpio_pin_toggle_logic^0,c
   713   001548  0E03               	movlw	3
   714   00154A  642B               	cpfsgt	??_gpio_pin_toggle_logic^0,c
   715   00154C  EFAA  F00A         	goto	u1311
   716   001550  EFAC  F00A         	goto	u1310
   717   001554                     u1311:
   718   001554  EFAE  F00A         	goto	l2570
   719   001558                     u1310:
   720   001558  EF88  F00A         	goto	l2562
   721   00155C                     l2570:
   722                           
   723                           ;MCAL_LAYER/GPIO/HAL_GPIO.c: 156:     {;MCAL_LAYER/GPIO/HAL_GPIO.c: 157:         (*lat_r
      +                          egisters[_pin_config->Port] ^= ((uint8_t)1<<_pin_config->Pin_Number));
   724   00155C  C029  FFD9         	movff	gpio_pin_toggle_logic@_pin_config,fsr2l
   725   001560  C02A  FFDA         	movff	gpio_pin_toggle_logic@_pin_config+1,fsr2h
   726   001564  30DF               	rrcf	223,w,c
   727   001566  32E8               	rrcf	wreg,f,c
   728   001568  32E8               	rrcf	wreg,f,c
   729   00156A  0B07               	andlw	7
   730   00156C  6E2B               	movwf	??_gpio_pin_toggle_logic^0,c
   731   00156E  0E01               	movlw	1
   732   001570  6E2C               	movwf	(??_gpio_pin_toggle_logic+1)^0,c
   733   001572  2A2B               	incf	??_gpio_pin_toggle_logic^0,f,c
   734   001574  EFBE  F00A         	goto	u1324
   735   001578                     u1325:
   736   001578  90D8               	bcf	status,0,c
   737   00157A  362C               	rlcf	(??_gpio_pin_toggle_logic+1)^0,f,c
   738   00157C                     u1324:
   739   00157C  2E2B               	decfsz	??_gpio_pin_toggle_logic^0,f,c
   740   00157E  EFBC  F00A         	goto	u1325
   741   001582  C029  FFD9         	movff	gpio_pin_toggle_logic@_pin_config,fsr2l
   742   001586  C02A  FFDA         	movff	gpio_pin_toggle_logic@_pin_config+1,fsr2h
   743   00158A  50DF               	movf	223,w,c
   744   00158C  0B07               	andlw	7
   745   00158E  6E2D               	movwf	(??_gpio_pin_toggle_logic+2)^0,c
   746   001590  502D               	movf	(??_gpio_pin_toggle_logic+2)^0,w,c
   747   001592  0D02               	mullw	2
   748   001594  0E01               	movlw	low _lat_registers
   749   001596  24F3               	addwf	243,w,c
   750   001598  6ED9               	movwf	fsr2l,c
   751   00159A  0E00               	movlw	high _lat_registers
   752   00159C  20F4               	addwfc	prodh,w,c
   753   00159E  6EDA               	movwf	fsr2h,c
   754   0015A0  CFDE F02E          	movff	postinc2,??_gpio_pin_toggle_logic+3
   755   0015A4  CFDD F02F          	movff	postdec2,??_gpio_pin_toggle_logic+4
   756   0015A8  C02E  FFD9         	movff	??_gpio_pin_toggle_logic+3,fsr2l
   757   0015AC  C02F  FFDA         	movff	??_gpio_pin_toggle_logic+4,fsr2h
   758   0015B0  502C               	movf	(??_gpio_pin_toggle_logic+1)^0,w,c
   759   0015B2  1ADF               	xorwf	indf2,f,c
   760   0015B4                     l2572:
   761                           
   762                           ;MCAL_LAYER/GPIO/HAL_GPIO.c: 159:     return ret ;
   763   0015B4  5030               	movf	gpio_pin_toggle_logic@ret^0,w,c
   764   0015B6  0012               	return		;funcret
   765   0015B8                     __end_of_gpio_pin_toggle_logic:
   766                           	callstack 0
   767                           
   768 ;; *************** function _led_init *****************
   769 ;; Defined at:
   770 ;;		line 17 in file "ECU_LAYER/LED/ECU_LED.c"
   771 ;; Parameters:    Size  Location     Type
   772 ;;  led             2   11[COMRAM] PTR const struct .
   773 ;;		 -> led1(1), led2(1), 
   774 ;; Auto vars:     Size  Location     Type
   775 ;;  Pin_obj         1   15[COMRAM] struct .
   776 ;;  ret             1   14[COMRAM] unsigned char 
   777 ;; Return value:  Size  Location     Type
   778 ;;                  1    wreg      unsigned char 
   779 ;; Registers used:
   780 ;;		wreg, fsr2l, fsr2h, status,2, status,0, prodl, prodh, cstack
   781 ;; Tracked objects:
   782 ;;		On entry : 0/0
   783 ;;		On exit  : 0/0
   784 ;;		Unchanged: 0/0
   785 ;; Data sizes:     COMRAM   BANK0   BANK1   BANK2   BANK3   BANK4   BANK5   BANK6   BANK7   BANK8   BANK9  BANK10  BANK1
      +1  BANK12  BANK13  BANK14  BANK15
   786 ;;      Params:         2       0       0       0       0       0       0       0       0       0       0       0       
      +0       0       0       0       0
   787 ;;      Locals:         2       0       0       0       0       0       0       0       0       0       0       0       
      +0       0       0       0       0
   788 ;;      Temps:          1       0       0       0       0       0       0       0       0       0       0       0       
      +0       0       0       0       0
   789 ;;      Totals:         5       0       0       0       0       0       0       0       0       0       0       0       
      +0       0       0       0       0
   790 ;;Total ram usage:        5 bytes
   791 ;; Hardware stack levels used: 1
   792 ;; Hardware stack levels required when called: 3
   793 ;; This function calls:
   794 ;;		_gpio_pin_direction_init
   795 ;; This function is called by:
   796 ;;		_main
   797 ;; This function uses a non-reentrant model
   798 ;;
   799                           
   800                           	psect	text3
   801   001438                     __ptext3:
   802                           	callstack 0
   803   001438                     _led_init:
   804                           	callstack 27
   805   001438                     
   806                           ;ECU_LAYER/LED/ECU_LED.c: 19:     if(((void*)0) == led)
   807   001438  5032               	movf	led_init@led^0,w,c
   808   00143A  1033               	iorwf	(led_init@led+1)^0,w,c
   809   00143C  A4D8               	btfss	status,2,c
   810   00143E  EF23  F00A         	goto	u1401
   811   001442  EF25  F00A         	goto	u1400
   812   001446                     u1401:
   813   001446  EF29  F00A         	goto	l2748
   814   00144A                     u1400:
   815   00144A                     l2746:
   816                           
   817                           ;ECU_LAYER/LED/ECU_LED.c: 20:     {;ECU_LAYER/LED/ECU_LED.c: 21:        ret = (Std_Retur
      +                          nType)0x00 ;
   818   00144A  0E00               	movlw	0
   819   00144C  6E35               	movwf	led_init@ret^0,c
   820                           
   821                           ;ECU_LAYER/LED/ECU_LED.c: 22:     }
   822   00144E  EF7B  F00A         	goto	l2762
   823   001452                     l2748:
   824   001452  C032  FFD9         	movff	led_init@led,fsr2l
   825   001456  C033  FFDA         	movff	led_init@led+1,fsr2h
   826   00145A  30DF               	rrcf	223,w,c
   827   00145C  32E8               	rrcf	wreg,f,c
   828   00145E  32E8               	rrcf	wreg,f,c
   829   001460  0B07               	andlw	7
   830   001462  6E34               	movwf	??_led_init^0,c
   831   001464  0E08               	movlw	8
   832   001466  6034               	cpfslt	??_led_init^0,c
   833   001468  EF38  F00A         	goto	u1411
   834   00146C  EF3A  F00A         	goto	u1410
   835   001470                     u1411:
   836   001470  EF25  F00A         	goto	l2746
   837   001474                     u1410:
   838   001474  C032  FFD9         	movff	led_init@led,fsr2l
   839   001478  C033  FFDA         	movff	led_init@led+1,fsr2h
   840   00147C  50DF               	movf	223,w,c
   841   00147E  0B07               	andlw	7
   842   001480  6E34               	movwf	??_led_init^0,c
   843   001482  0E03               	movlw	3
   844   001484  6434               	cpfsgt	??_led_init^0,c
   845   001486  EF47  F00A         	goto	u1421
   846   00148A  EF49  F00A         	goto	u1420
   847   00148E                     u1421:
   848   00148E  EF4B  F00A         	goto	l214
   849   001492                     u1420:
   850   001492  EF25  F00A         	goto	l2746
   851   001496                     l214:
   852                           
   853                           ;ECU_LAYER/LED/ECU_LED.c: 28:     {;ECU_LAYER/LED/ECU_LED.c: 29:         pinConfig_t Pin
      +                          _obj = {
   854   001496  C046  F036         	movff	led_init@F2879,led_init@Pin_obj
   855   00149A  C032  FFD9         	movff	led_init@led,fsr2l
   856   00149E  C033  FFDA         	movff	led_init@led+1,fsr2h
   857   0014A2  50DF               	movf	223,w,c
   858   0014A4  0B07               	andlw	7
   859   0014A6  6E34               	movwf	??_led_init^0,c
   860   0014A8  5036               	movf	led_init@Pin_obj^0,w,c
   861   0014AA  1834               	xorwf	??_led_init^0,w,c
   862   0014AC  0BF8               	andlw	-8
   863   0014AE  1834               	xorwf	??_led_init^0,w,c
   864   0014B0  6E36               	movwf	led_init@Pin_obj^0,c
   865   0014B2  C032  FFD9         	movff	led_init@led,fsr2l
   866   0014B6  C033  FFDA         	movff	led_init@led+1,fsr2h
   867   0014BA  30DF               	rrcf	223,w,c
   868   0014BC  32E8               	rrcf	wreg,f,c
   869   0014BE  32E8               	rrcf	wreg,f,c
   870   0014C0  0B07               	andlw	7
   871   0014C2  6E34               	movwf	??_led_init^0,c
   872   0014C4  4634               	rlncf	??_led_init^0,f,c
   873   0014C6  4634               	rlncf	??_led_init^0,f,c
   874   0014C8  4634               	rlncf	??_led_init^0,f,c
   875   0014CA  5036               	movf	led_init@Pin_obj^0,w,c
   876   0014CC  1834               	xorwf	??_led_init^0,w,c
   877   0014CE  0BC7               	andlw	-57
   878   0014D0  1834               	xorwf	??_led_init^0,w,c
   879   0014D2  6E36               	movwf	led_init@Pin_obj^0,c
   880   0014D4  9C36               	bcf	led_init@Pin_obj^0,6,c
   881   0014D6  C032  FFD9         	movff	led_init@led,fsr2l
   882   0014DA  C033  FFDA         	movff	led_init@led+1,fsr2h
   883   0014DE  ACDF               	btfss	indf2,6,c
   884   0014E0  D002               	bra	u1435
   885   0014E2  8E36               	bsf	led_init@Pin_obj^0,7,c
   886   0014E4  D001               	bra	u1437
   887   0014E6                     u1435:
   888   0014E6  9E36               	bcf	led_init@Pin_obj^0,7,c
   889   0014E8                     u1437:
   890   0014E8                     
   891                           ;ECU_LAYER/LED/ECU_LED.c: 35:         ret = gpio_pin_direction_init(&Pin_obj);
   892   0014E8  0E36               	movlw	low led_init@Pin_obj
   893   0014EA  6E29               	movwf	gpio_pin_direction_init@_pin_config^0,c
   894   0014EC  0E00               	movlw	high led_init@Pin_obj
   895   0014EE  6E2A               	movwf	(gpio_pin_direction_init@_pin_config+1)^0,c
   896   0014F0  EC09  F008         	call	_gpio_pin_direction_init	;wreg free
   897   0014F4  6E35               	movwf	led_init@ret^0,c
   898   0014F6                     l2762:
   899                           
   900                           ;ECU_LAYER/LED/ECU_LED.c: 37:     return ret ;
   901   0014F6  5035               	movf	led_init@ret^0,w,c
   902   0014F8  0012               	return		;funcret
   903   0014FA                     __end_of_led_init:
   904                           	callstack 0
   905                           
   906 ;; *************** function _Interrupt_INTx_Init *****************
   907 ;; Defined at:
   908 ;;		line 27 in file "MCAL_LAYER/INTERRUPT/mcal_External_Interrupt.c"
   909 ;; Parameters:    Size  Location     Type
   910 ;;  Int_Obj         2   14[COMRAM] PTR const struct .
   911 ;;		 -> INT0_INTERRUPT(6), 
   912 ;; Auto vars:     Size  Location     Type
   913 ;;  ret             1   16[COMRAM] unsigned char 
   914 ;; Return value:  Size  Location     Type
   915 ;;                  1    wreg      unsigned char 
   916 ;; Registers used:
   917 ;;		wreg, fsr2l, fsr2h, status,2, status,0, prodl, prodh, cstack
   918 ;; Tracked objects:
   919 ;;		On entry : 0/0
   920 ;;		On exit  : 0/0
   921 ;;		Unchanged: 0/0
   922 ;; Data sizes:     COMRAM   BANK0   BANK1   BANK2   BANK3   BANK4   BANK5   BANK6   BANK7   BANK8   BANK9  BANK10  BANK1
      +1  BANK12  BANK13  BANK14  BANK15
   923 ;;      Params:         2       0       0       0       0       0       0       0       0       0       0       0       
      +0       0       0       0       0
   924 ;;      Locals:         1       0       0       0       0       0       0       0       0       0       0       0       
      +0       0       0       0       0
   925 ;;      Temps:          0       0       0       0       0       0       0       0       0       0       0       0       
      +0       0       0       0       0
   926 ;;      Totals:         3       0       0       0       0       0       0       0       0       0       0       0       
      +0       0       0       0       0
   927 ;;Total ram usage:        3 bytes
   928 ;; Hardware stack levels used: 1
   929 ;; Hardware stack levels required when called: 4
   930 ;; This function calls:
   931 ;;		_Interrupt_INTx_Clear_Flag
   932 ;;		_Interrupt_INTx_Disable
   933 ;;		_Interrupt_INTx_Edge_Init
   934 ;;		_Interrupt_INTx_Enable
   935 ;;		_Interrupt_INTx_Pin_Init
   936 ;;		_Interrupt_INTx_Priority_Init
   937 ;;		_Set_INTx_Interrupt_Handller
   938 ;; This function is called by:
   939 ;;		_main
   940 ;; This function uses a non-reentrant model
   941 ;;
   942                           
   943                           	psect	text4
   944   0016DA                     __ptext4:
   945                           	callstack 0
   946   0016DA                     _Interrupt_INTx_Init:
   947                           	callstack 26
   948   0016DA                     
   949                           ;MCAL_LAYER/INTERRUPT/mcal_External_Interrupt.c: 29:     if(((void*)0) == Int_Obj)
   950   0016DA  5035               	movf	Interrupt_INTx_Init@Int_Obj^0,w,c
   951   0016DC  1036               	iorwf	(Interrupt_INTx_Init@Int_Obj+1)^0,w,c
   952   0016DE  A4D8               	btfss	status,2,c
   953   0016E0  EF74  F00B         	goto	u1481
   954   0016E4  EF76  F00B         	goto	u1480
   955   0016E8                     u1481:
   956   0016E8  EF7A  F00B         	goto	l2796
   957   0016EC                     u1480:
   958   0016EC                     
   959                           ;MCAL_LAYER/INTERRUPT/mcal_External_Interrupt.c: 30:     {;MCAL_LAYER/INTERRUPT/mcal_Ext
      +                          ernal_Interrupt.c: 31:         ret = (Std_ReturnType)0x00 ;
   960   0016EC  0E00               	movlw	0
   961   0016EE  6E37               	movwf	Interrupt_INTx_Init@ret^0,c
   962                           
   963                           ;MCAL_LAYER/INTERRUPT/mcal_External_Interrupt.c: 32:     }
   964   0016F0  EFA7  F00B         	goto	l2808
   965   0016F4                     l2796:
   966                           
   967                           ;MCAL_LAYER/INTERRUPT/mcal_External_Interrupt.c: 34:     {;MCAL_LAYER/INTERRUPT/mcal_Ext
      +                          ernal_Interrupt.c: 35:         ret = Interrupt_INTx_Disable(Int_Obj);
   968   0016F4  C035  F029         	movff	Interrupt_INTx_Init@Int_Obj,Interrupt_INTx_Disable@Int_Obj
   969   0016F8  C036  F02A         	movff	Interrupt_INTx_Init@Int_Obj+1,Interrupt_INTx_Disable@Int_Obj+1
   970   0016FC  ECA9  F00B         	call	_Interrupt_INTx_Disable	;wreg free
   971   001700  6E37               	movwf	Interrupt_INTx_Init@ret^0,c
   972                           
   973                           ;MCAL_LAYER/INTERRUPT/mcal_External_Interrupt.c: 36:         ret = Interrupt_INTx_Clear_
      +                          Flag(Int_Obj);
   974   001702  C035  F029         	movff	Interrupt_INTx_Init@Int_Obj,Interrupt_INTx_Clear_Flag@Int_Obj
   975   001706  C036  F02A         	movff	Interrupt_INTx_Init@Int_Obj+1,Interrupt_INTx_Clear_Flag@Int_Obj+1
   976   00170A  ECE2  F00B         	call	_Interrupt_INTx_Clear_Flag	;wreg free
   977   00170E  6E37               	movwf	Interrupt_INTx_Init@ret^0,c
   978   001710  C035  F032         	movff	Interrupt_INTx_Init@Int_Obj,Interrupt_INTx_Pin_Init@Int_Obj
   979   001714  C036  F033         	movff	Interrupt_INTx_Init@Int_Obj+1,Interrupt_INTx_Pin_Init@Int_Obj+1
   980   001718  EC6E  F00C         	call	_Interrupt_INTx_Pin_Init	;wreg free
   981   00171C  C035  F029         	movff	Interrupt_INTx_Init@Int_Obj,Interrupt_INTx_Priority_Init@Int_Obj
   982   001720  C036  F02A         	movff	Interrupt_INTx_Init@Int_Obj+1,Interrupt_INTx_Priority_Init@Int_Obj+1
   983   001724  EC4D  F009         	call	_Interrupt_INTx_Priority_Init	;wreg free
   984   001728  C035  F029         	movff	Interrupt_INTx_Init@Int_Obj,Interrupt_INTx_Edge_Init@Int_Obj
   985   00172C  C036  F02A         	movff	Interrupt_INTx_Init@Int_Obj+1,Interrupt_INTx_Edge_Init@Int_Obj+1
   986   001730  ECBC  F008         	call	_Interrupt_INTx_Edge_Init	;wreg free
   987   001734  C035  F02C         	movff	Interrupt_INTx_Init@Int_Obj,Set_INTx_Interrupt_Handller@Int_Obj
   988   001738  C036  F02D         	movff	Interrupt_INTx_Init@Int_Obj+1,Set_INTx_Interrupt_Handller@Int_Obj+1
   989   00173C  ECDC  F00A         	call	_Set_INTx_Interrupt_Handller	;wreg free
   990   001740                     
   991                           ;MCAL_LAYER/INTERRUPT/mcal_External_Interrupt.c: 43:         ret = Interrupt_INTx_Enable
      +                          (Int_Obj);
   992   001740  C035  F029         	movff	Interrupt_INTx_Init@Int_Obj,Interrupt_INTx_Enable@Int_Obj
   993   001744  C036  F02A         	movff	Interrupt_INTx_Init@Int_Obj+1,Interrupt_INTx_Enable@Int_Obj+1
   994   001748  EC2B  F00B         	call	_Interrupt_INTx_Enable	;wreg free
   995   00174C  6E37               	movwf	Interrupt_INTx_Init@ret^0,c
   996   00174E                     l2808:
   997                           
   998                           ;MCAL_LAYER/INTERRUPT/mcal_External_Interrupt.c: 45:     return ret ;
   999   00174E  5037               	movf	Interrupt_INTx_Init@ret^0,w,c
  1000   001750  0012               	return		;funcret
  1001   001752                     __end_of_Interrupt_INTx_Init:
  1002                           	callstack 0
  1003                           
  1004 ;; *************** function _Set_INTx_Interrupt_Handller *****************
  1005 ;; Defined at:
  1006 ;;		line 256 in file "MCAL_LAYER/INTERRUPT/mcal_External_Interrupt.c"
  1007 ;; Parameters:    Size  Location     Type
  1008 ;;  Int_Obj         2    5[COMRAM] PTR const struct .
  1009 ;;		 -> INT0_INTERRUPT(6), 
  1010 ;; Auto vars:     Size  Location     Type
  1011 ;;  ret             1    9[COMRAM] unsigned char 
  1012 ;; Return value:  Size  Location     Type
  1013 ;;                  1    wreg      unsigned char 
  1014 ;; Registers used:
  1015 ;;		wreg, fsr2l, fsr2h, status,2, status,0, cstack
  1016 ;; Tracked objects:
  1017 ;;		On entry : 0/0
  1018 ;;		On exit  : 0/0
  1019 ;;		Unchanged: 0/0
  1020 ;; Data sizes:     COMRAM   BANK0   BANK1   BANK2   BANK3   BANK4   BANK5   BANK6   BANK7   BANK8   BANK9  BANK10  BANK1
      +1  BANK12  BANK13  BANK14  BANK15
  1021 ;;      Params:         2       0       0       0       0       0       0       0       0       0       0       0       
      +0       0       0       0       0
  1022 ;;      Locals:         1       0       0       0       0       0       0       0       0       0       0       0       
      +0       0       0       0       0
  1023 ;;      Temps:          2       0       0       0       0       0       0       0       0       0       0       0       
      +0       0       0       0       0
  1024 ;;      Totals:         5       0       0       0       0       0       0       0       0       0       0       0       
      +0       0       0       0       0
  1025 ;;Total ram usage:        5 bytes
  1026 ;; Hardware stack levels used: 1
  1027 ;; Hardware stack levels required when called: 3
  1028 ;; This function calls:
  1029 ;;		_Set_INT0_Interrupt_Handller
  1030 ;;		_Set_INT1_Interrupt_Handller
  1031 ;;		_Set_INT2_Interrupt_Handller
  1032 ;; This function is called by:
  1033 ;;		_Interrupt_INTx_Init
  1034 ;; This function uses a non-reentrant model
  1035 ;;
  1036                           
  1037                           	psect	text5
  1038   0015B8                     __ptext5:
  1039                           	callstack 0
  1040   0015B8                     _Set_INTx_Interrupt_Handller:
  1041                           	callstack 26
  1042   0015B8                     
  1043                           ;MCAL_LAYER/INTERRUPT/mcal_External_Interrupt.c: 258:     if(((void*)0) == Int_Obj)
  1044   0015B8  502C               	movf	Set_INTx_Interrupt_Handller@Int_Obj^0,w,c
  1045   0015BA  102D               	iorwf	(Set_INTx_Interrupt_Handller@Int_Obj+1)^0,w,c
  1046   0015BC  A4D8               	btfss	status,2,c
  1047   0015BE  EFE3  F00A         	goto	u1381
  1048   0015C2  EFE5  F00A         	goto	u1380
  1049   0015C6                     u1381:
  1050   0015C6  EF0A  F00B         	goto	l2714
  1051   0015CA                     u1380:
  1052   0015CA                     l2704:
  1053                           
  1054                           ;MCAL_LAYER/INTERRUPT/mcal_External_Interrupt.c: 259:     {;MCAL_LAYER/INTERRUPT/mcal_Ex
      +                          ternal_Interrupt.c: 260:         ret = (Std_ReturnType)0x00 ;
  1055   0015CA  0E00               	movlw	0
  1056   0015CC  6E30               	movwf	Set_INTx_Interrupt_Handller@ret^0,c
  1057                           
  1058                           ;MCAL_LAYER/INTERRUPT/mcal_External_Interrupt.c: 261:     }
  1059   0015CE  EF29  F00B         	goto	l2716
  1060   0015D2                     l2706:
  1061   0015D2  0E04               	movlw	4
  1062   0015D4  242C               	addwf	Set_INTx_Interrupt_Handller@Int_Obj^0,w,c
  1063   0015D6  6E29               	movwf	Set_INT0_Interrupt_Handller@Int_Interrupt_Handller^0,c
  1064   0015D8  0E00               	movlw	0
  1065   0015DA  202D               	addwfc	(Set_INTx_Interrupt_Handller@Int_Obj+1)^0,w,c
  1066   0015DC  6E2A               	movwf	(Set_INT0_Interrupt_Handller@Int_Interrupt_Handller+1)^0,c
  1067   0015DE  ECB0  F00C         	call	_Set_INT0_Interrupt_Handller	;wreg free
  1068   0015E2  6E30               	movwf	Set_INTx_Interrupt_Handller@ret^0,c
  1069   0015E4  EF29  F00B         	goto	l2716
  1070   0015E8                     l2708:
  1071   0015E8  0E04               	movlw	4
  1072   0015EA  242C               	addwf	Set_INTx_Interrupt_Handller@Int_Obj^0,w,c
  1073   0015EC  6E29               	movwf	Set_INT1_Interrupt_Handller@Int_Interrupt_Handller^0,c
  1074   0015EE  0E00               	movlw	0
  1075   0015F0  202D               	addwfc	(Set_INTx_Interrupt_Handller@Int_Obj+1)^0,w,c
  1076   0015F2  6E2A               	movwf	(Set_INT1_Interrupt_Handller@Int_Interrupt_Handller+1)^0,c
  1077   0015F4  EC9B  F00C         	call	_Set_INT1_Interrupt_Handller	;wreg free
  1078   0015F8  6E30               	movwf	Set_INTx_Interrupt_Handller@ret^0,c
  1079   0015FA  EF29  F00B         	goto	l2716
  1080   0015FE                     l2710:
  1081   0015FE  0E04               	movlw	4
  1082   001600  242C               	addwf	Set_INTx_Interrupt_Handller@Int_Obj^0,w,c
  1083   001602  6E29               	movwf	Set_INT2_Interrupt_Handller@Int_Interrupt_Handller^0,c
  1084   001604  0E00               	movlw	0
  1085   001606  202D               	addwfc	(Set_INTx_Interrupt_Handller@Int_Obj+1)^0,w,c
  1086   001608  6E2A               	movwf	(Set_INT2_Interrupt_Handller@Int_Interrupt_Handller+1)^0,c
  1087   00160A  EC86  F00C         	call	_Set_INT2_Interrupt_Handller	;wreg free
  1088   00160E  6E30               	movwf	Set_INTx_Interrupt_Handller@ret^0,c
  1089   001610  EF29  F00B         	goto	l2716
  1090   001614                     l2714:
  1091   001614  EE20 F001          	lfsr	2,1
  1092   001618  502C               	movf	Set_INTx_Interrupt_Handller@Int_Obj^0,w,c
  1093   00161A  26D9               	addwf	fsr2l,f,c
  1094   00161C  502D               	movf	(Set_INTx_Interrupt_Handller@Int_Obj+1)^0,w,c
  1095   00161E  22DA               	addwfc	fsr2h,f,c
  1096   001620  50DF               	movf	indf2,w,c
  1097   001622  6E2E               	movwf	??_Set_INTx_Interrupt_Handller^0,c
  1098   001624  6A2F               	clrf	(??_Set_INTx_Interrupt_Handller+1)^0,c
  1099                           
  1100                           ; Switch on 2 bytes has been partitioned into a top level switch of size 1, and 1 sub-sw
      +                          itches
  1101                           ; Switch size 1, requested type "simple"
  1102                           ; Number of cases is 1, Range of values is 0 to 0
  1103                           ; switch strategies available:
  1104                           ; Name         Instructions Cycles
  1105                           ; simple_byte            4     3 (average)
  1106                           ;	Chosen strategy is simple_byte
  1107   001626  502F               	movf	(??_Set_INTx_Interrupt_Handller+1)^0,w,c
  1108   001628  0A00               	xorlw	0	; case 0
  1109   00162A  B4D8               	btfsc	status,2,c
  1110   00162C  EF1A  F00B         	goto	l3072
  1111   001630  EFE5  F00A         	goto	l2704
  1112   001634                     l3072:
  1113                           
  1114                           ; Switch size 1, requested type "simple"
  1115                           ; Number of cases is 3, Range of values is 0 to 2
  1116                           ; switch strategies available:
  1117                           ; Name         Instructions Cycles
  1118                           ; simple_byte           10     6 (average)
  1119                           ;	Chosen strategy is simple_byte
  1120   001634  502E               	movf	??_Set_INTx_Interrupt_Handller^0,w,c
  1121   001636  0A00               	xorlw	0	; case 0
  1122   001638  B4D8               	btfsc	status,2,c
  1123   00163A  EFE9  F00A         	goto	l2706
  1124   00163E  0A01               	xorlw	1	; case 1
  1125   001640  B4D8               	btfsc	status,2,c
  1126   001642  EFF4  F00A         	goto	l2708
  1127   001646  0A03               	xorlw	3	; case 2
  1128   001648  B4D8               	btfsc	status,2,c
  1129   00164A  EFFF  F00A         	goto	l2710
  1130   00164E  EFE5  F00A         	goto	l2704
  1131   001652                     l2716:
  1132                           
  1133                           ;MCAL_LAYER/INTERRUPT/mcal_External_Interrupt.c: 271:     return ret ;
  1134   001652  5030               	movf	Set_INTx_Interrupt_Handller@ret^0,w,c
  1135   001654  0012               	return		;funcret
  1136   001656                     __end_of_Set_INTx_Interrupt_Handller:
  1137                           	callstack 0
  1138                           
  1139 ;; *************** function _Set_INT2_Interrupt_Handller *****************
  1140 ;; Defined at:
  1141 ;;		line 243 in file "MCAL_LAYER/INTERRUPT/mcal_External_Interrupt.c"
  1142 ;; Parameters:    Size  Location     Type
  1143 ;;  Int_Interrup    2    2[COMRAM] PTR FTN()void 
  1144 ;;		 -> INT0_INTERRUPT(6), INT0_INTERRUPT.EX_Int_Handler(2), 
  1145 ;; Auto vars:     Size  Location     Type
  1146 ;;  ret             1    4[COMRAM] unsigned char 
  1147 ;; Return value:  Size  Location     Type
  1148 ;;                  1    wreg      unsigned char 
  1149 ;; Registers used:
  1150 ;;		wreg, status,2, status,0
  1151 ;; Tracked objects:
  1152 ;;		On entry : 0/0
  1153 ;;		On exit  : 0/0
  1154 ;;		Unchanged: 0/0
  1155 ;; Data sizes:     COMRAM   BANK0   BANK1   BANK2   BANK3   BANK4   BANK5   BANK6   BANK7   BANK8   BANK9  BANK10  BANK1
      +1  BANK12  BANK13  BANK14  BANK15
  1156 ;;      Params:         2       0       0       0       0       0       0       0       0       0       0       0       
      +0       0       0       0       0
  1157 ;;      Locals:         1       0       0       0       0       0       0       0       0       0       0       0       
      +0       0       0       0       0
  1158 ;;      Temps:          0       0       0       0       0       0       0       0       0       0       0       0       
      +0       0       0       0       0
  1159 ;;      Totals:         3       0       0       0       0       0       0       0       0       0       0       0       
      +0       0       0       0       0
  1160 ;;Total ram usage:        3 bytes
  1161 ;; Hardware stack levels used: 1
  1162 ;; Hardware stack levels required when called: 2
  1163 ;; This function calls:
  1164 ;;		Nothing
  1165 ;; This function is called by:
  1166 ;;		_Set_INTx_Interrupt_Handller
  1167 ;; This function uses a non-reentrant model
  1168 ;;
  1169                           
  1170                           	psect	text6
  1171   00190C                     __ptext6:
  1172                           	callstack 0
  1173   00190C                     _Set_INT2_Interrupt_Handller:
  1174                           	callstack 26
  1175   00190C                     
  1176                           ;MCAL_LAYER/INTERRUPT/mcal_External_Interrupt.c: 244:     Std_ReturnType ret = (Std_Retu
      +                          rnType)0x01 ;
  1177   00190C  0E01               	movlw	1
  1178   00190E  6E2B               	movwf	Set_INT2_Interrupt_Handller@ret^0,c
  1179   001910                     
  1180                           ;MCAL_LAYER/INTERRUPT/mcal_External_Interrupt.c: 245:     if(((void*)0) == Int_Interrupt
      +                          _Handller)
  1181   001910  5029               	movf	Set_INT2_Interrupt_Handller@Int_Interrupt_Handller^0,w,c
  1182   001912  102A               	iorwf	(Set_INT2_Interrupt_Handller@Int_Interrupt_Handller+1)^0,w,c
  1183   001914  A4D8               	btfss	status,2,c
  1184   001916  EF8F  F00C         	goto	u1281
  1185   00191A  EF91  F00C         	goto	u1280
  1186   00191E                     u1281:
  1187   00191E  EF95  F00C         	goto	l2552
  1188   001922                     u1280:
  1189   001922                     
  1190                           ;MCAL_LAYER/INTERRUPT/mcal_External_Interrupt.c: 246:     {;MCAL_LAYER/INTERRUPT/mcal_Ex
      +                          ternal_Interrupt.c: 247:         ret = (Std_ReturnType)0x00 ;
  1191   001922  0E00               	movlw	0
  1192   001924  6E2B               	movwf	Set_INT2_Interrupt_Handller@ret^0,c
  1193                           
  1194                           ;MCAL_LAYER/INTERRUPT/mcal_External_Interrupt.c: 248:     }
  1195   001926  EF99  F00C         	goto	l2554
  1196   00192A                     l2552:
  1197                           
  1198                           ;MCAL_LAYER/INTERRUPT/mcal_External_Interrupt.c: 250:     {;MCAL_LAYER/INTERRUPT/mcal_Ex
      +                          ternal_Interrupt.c: 251:         Int2_Interrupt_Handller = Int_Interrupt_Handller ;
  1199   00192A  C029  F03A         	movff	Set_INT2_Interrupt_Handller@Int_Interrupt_Handller,_Int2_Interrupt_Handller
  1200   00192E  C02A  F03B         	movff	Set_INT2_Interrupt_Handller@Int_Interrupt_Handller+1,_Int2_Interrupt_Handller+1
  1201   001932                     l2554:
  1202                           
  1203                           ;MCAL_LAYER/INTERRUPT/mcal_External_Interrupt.c: 253:     return ret ;
  1204   001932  502B               	movf	Set_INT2_Interrupt_Handller@ret^0,w,c
  1205   001934  0012               	return		;funcret
  1206   001936                     __end_of_Set_INT2_Interrupt_Handller:
  1207                           	callstack 0
  1208                           
  1209 ;; *************** function _Set_INT1_Interrupt_Handller *****************
  1210 ;; Defined at:
  1211 ;;		line 231 in file "MCAL_LAYER/INTERRUPT/mcal_External_Interrupt.c"
  1212 ;; Parameters:    Size  Location     Type
  1213 ;;  Int_Interrup    2    2[COMRAM] PTR FTN()void 
  1214 ;;		 -> INT0_INTERRUPT(6), INT0_INTERRUPT.EX_Int_Handler(2), 
  1215 ;; Auto vars:     Size  Location     Type
  1216 ;;  ret             1    4[COMRAM] unsigned char 
  1217 ;; Return value:  Size  Location     Type
  1218 ;;                  1    wreg      unsigned char 
  1219 ;; Registers used:
  1220 ;;		wreg, status,2, status,0
  1221 ;; Tracked objects:
  1222 ;;		On entry : 0/0
  1223 ;;		On exit  : 0/0
  1224 ;;		Unchanged: 0/0
  1225 ;; Data sizes:     COMRAM   BANK0   BANK1   BANK2   BANK3   BANK4   BANK5   BANK6   BANK7   BANK8   BANK9  BANK10  BANK1
      +1  BANK12  BANK13  BANK14  BANK15
  1226 ;;      Params:         2       0       0       0       0       0       0       0       0       0       0       0       
      +0       0       0       0       0
  1227 ;;      Locals:         1       0       0       0       0       0       0       0       0       0       0       0       
      +0       0       0       0       0
  1228 ;;      Temps:          0       0       0       0       0       0       0       0       0       0       0       0       
      +0       0       0       0       0
  1229 ;;      Totals:         3       0       0       0       0       0       0       0       0       0       0       0       
      +0       0       0       0       0
  1230 ;;Total ram usage:        3 bytes
  1231 ;; Hardware stack levels used: 1
  1232 ;; Hardware stack levels required when called: 2
  1233 ;; This function calls:
  1234 ;;		Nothing
  1235 ;; This function is called by:
  1236 ;;		_Set_INTx_Interrupt_Handller
  1237 ;; This function uses a non-reentrant model
  1238 ;;
  1239                           
  1240                           	psect	text7
  1241   001936                     __ptext7:
  1242                           	callstack 0
  1243   001936                     _Set_INT1_Interrupt_Handller:
  1244                           	callstack 26
  1245   001936                     
  1246                           ;MCAL_LAYER/INTERRUPT/mcal_External_Interrupt.c: 232:     Std_ReturnType ret = (Std_Retu
      +                          rnType)0x01 ;
  1247   001936  0E01               	movlw	1
  1248   001938  6E2B               	movwf	Set_INT1_Interrupt_Handller@ret^0,c
  1249   00193A                     
  1250                           ;MCAL_LAYER/INTERRUPT/mcal_External_Interrupt.c: 233:     if(((void*)0) == Int_Interrupt
      +                          _Handller)
  1251   00193A  5029               	movf	Set_INT1_Interrupt_Handller@Int_Interrupt_Handller^0,w,c
  1252   00193C  102A               	iorwf	(Set_INT1_Interrupt_Handller@Int_Interrupt_Handller+1)^0,w,c
  1253   00193E  A4D8               	btfss	status,2,c
  1254   001940  EFA4  F00C         	goto	u1271
  1255   001944  EFA6  F00C         	goto	u1270
  1256   001948                     u1271:
  1257   001948  EFAA  F00C         	goto	l2540
  1258   00194C                     u1270:
  1259   00194C                     
  1260                           ;MCAL_LAYER/INTERRUPT/mcal_External_Interrupt.c: 234:     {;MCAL_LAYER/INTERRUPT/mcal_Ex
      +                          ternal_Interrupt.c: 235:         ret = (Std_ReturnType)0x00 ;
  1261   00194C  0E00               	movlw	0
  1262   00194E  6E2B               	movwf	Set_INT1_Interrupt_Handller@ret^0,c
  1263                           
  1264                           ;MCAL_LAYER/INTERRUPT/mcal_External_Interrupt.c: 236:     }
  1265   001950  EFAE  F00C         	goto	l2542
  1266   001954                     l2540:
  1267                           
  1268                           ;MCAL_LAYER/INTERRUPT/mcal_External_Interrupt.c: 238:     {;MCAL_LAYER/INTERRUPT/mcal_Ex
      +                          ternal_Interrupt.c: 239:         Int1_Interrupt_Handller = Int_Interrupt_Handller ;
  1269   001954  C029  F03C         	movff	Set_INT1_Interrupt_Handller@Int_Interrupt_Handller,_Int1_Interrupt_Handller
  1270   001958  C02A  F03D         	movff	Set_INT1_Interrupt_Handller@Int_Interrupt_Handller+1,_Int1_Interrupt_Handller+1
  1271   00195C                     l2542:
  1272                           
  1273                           ;MCAL_LAYER/INTERRUPT/mcal_External_Interrupt.c: 241:     return ret ;
  1274   00195C  502B               	movf	Set_INT1_Interrupt_Handller@ret^0,w,c
  1275   00195E  0012               	return		;funcret
  1276   001960                     __end_of_Set_INT1_Interrupt_Handller:
  1277                           	callstack 0
  1278                           
  1279 ;; *************** function _Set_INT0_Interrupt_Handller *****************
  1280 ;; Defined at:
  1281 ;;		line 219 in file "MCAL_LAYER/INTERRUPT/mcal_External_Interrupt.c"
  1282 ;; Parameters:    Size  Location     Type
  1283 ;;  Int_Interrup    2    2[COMRAM] PTR FTN()void 
  1284 ;;		 -> INT0_INTERRUPT(6), INT0_INTERRUPT.EX_Int_Handler(2), 
  1285 ;; Auto vars:     Size  Location     Type
  1286 ;;  ret             1    4[COMRAM] unsigned char 
  1287 ;; Return value:  Size  Location     Type
  1288 ;;                  1    wreg      unsigned char 
  1289 ;; Registers used:
  1290 ;;		wreg, status,2, status,0
  1291 ;; Tracked objects:
  1292 ;;		On entry : 0/0
  1293 ;;		On exit  : 0/0
  1294 ;;		Unchanged: 0/0
  1295 ;; Data sizes:     COMRAM   BANK0   BANK1   BANK2   BANK3   BANK4   BANK5   BANK6   BANK7   BANK8   BANK9  BANK10  BANK1
      +1  BANK12  BANK13  BANK14  BANK15
  1296 ;;      Params:         2       0       0       0       0       0       0       0       0       0       0       0       
      +0       0       0       0       0
  1297 ;;      Locals:         1       0       0       0       0       0       0       0       0       0       0       0       
      +0       0       0       0       0
  1298 ;;      Temps:          0       0       0       0       0       0       0       0       0       0       0       0       
      +0       0       0       0       0
  1299 ;;      Totals:         3       0       0       0       0       0       0       0       0       0       0       0       
      +0       0       0       0       0
  1300 ;;Total ram usage:        3 bytes
  1301 ;; Hardware stack levels used: 1
  1302 ;; Hardware stack levels required when called: 2
  1303 ;; This function calls:
  1304 ;;		Nothing
  1305 ;; This function is called by:
  1306 ;;		_Set_INTx_Interrupt_Handller
  1307 ;; This function uses a non-reentrant model
  1308 ;;
  1309                           
  1310                           	psect	text8
  1311   001960                     __ptext8:
  1312                           	callstack 0
  1313   001960                     _Set_INT0_Interrupt_Handller:
  1314                           	callstack 26
  1315   001960                     
  1316                           ;MCAL_LAYER/INTERRUPT/mcal_External_Interrupt.c: 220:     Std_ReturnType ret = (Std_Retu
      +                          rnType)0x01 ;
  1317   001960  0E01               	movlw	1
  1318   001962  6E2B               	movwf	Set_INT0_Interrupt_Handller@ret^0,c
  1319   001964                     
  1320                           ;MCAL_LAYER/INTERRUPT/mcal_External_Interrupt.c: 221:     if(((void*)0) == Int_Interrupt
      +                          _Handller)
  1321   001964  5029               	movf	Set_INT0_Interrupt_Handller@Int_Interrupt_Handller^0,w,c
  1322   001966  102A               	iorwf	(Set_INT0_Interrupt_Handller@Int_Interrupt_Handller+1)^0,w,c
  1323   001968  A4D8               	btfss	status,2,c
  1324   00196A  EFB9  F00C         	goto	u1261
  1325   00196E  EFBB  F00C         	goto	u1260
  1326   001972                     u1261:
  1327   001972  EFBF  F00C         	goto	l2528
  1328   001976                     u1260:
  1329   001976                     
  1330                           ;MCAL_LAYER/INTERRUPT/mcal_External_Interrupt.c: 222:     {;MCAL_LAYER/INTERRUPT/mcal_Ex
      +                          ternal_Interrupt.c: 223:         ret = (Std_ReturnType)0x00 ;
  1331   001976  0E00               	movlw	0
  1332   001978  6E2B               	movwf	Set_INT0_Interrupt_Handller@ret^0,c
  1333                           
  1334                           ;MCAL_LAYER/INTERRUPT/mcal_External_Interrupt.c: 224:     }
  1335   00197A  EFC3  F00C         	goto	l2530
  1336   00197E                     l2528:
  1337                           
  1338                           ;MCAL_LAYER/INTERRUPT/mcal_External_Interrupt.c: 226:     {;MCAL_LAYER/INTERRUPT/mcal_Ex
      +                          ternal_Interrupt.c: 227:         Int0_Interrupt_Handller = Int_Interrupt_Handller ;
  1339   00197E  C029  F03E         	movff	Set_INT0_Interrupt_Handller@Int_Interrupt_Handller,_Int0_Interrupt_Handller
  1340   001982  C02A  F03F         	movff	Set_INT0_Interrupt_Handller@Int_Interrupt_Handller+1,_Int0_Interrupt_Handller+1
  1341   001986                     l2530:
  1342                           
  1343                           ;MCAL_LAYER/INTERRUPT/mcal_External_Interrupt.c: 229:     return ret ;
  1344   001986  502B               	movf	Set_INT0_Interrupt_Handller@ret^0,w,c
  1345   001988  0012               	return		;funcret
  1346   00198A                     __end_of_Set_INT0_Interrupt_Handller:
  1347                           	callstack 0
  1348                           
  1349 ;; *************** function _Interrupt_INTx_Priority_Init *****************
  1350 ;; Defined at:
  1351 ;;		line 130 in file "MCAL_LAYER/INTERRUPT/mcal_External_Interrupt.c"
  1352 ;; Parameters:    Size  Location     Type
  1353 ;;  Int_Obj         2    2[COMRAM] PTR const struct .
  1354 ;;		 -> INT0_INTERRUPT(6), 
  1355 ;; Auto vars:     Size  Location     Type
  1356 ;;  ret             1    0        unsigned char 
  1357 ;; Return value:  Size  Location     Type
  1358 ;;                  1    wreg      unsigned char 
  1359 ;; Registers used:
  1360 ;;		wreg, fsr2l, fsr2h, status,2, status,0
  1361 ;; Tracked objects:
  1362 ;;		On entry : 0/0
  1363 ;;		On exit  : 0/0
  1364 ;;		Unchanged: 0/0
  1365 ;; Data sizes:     COMRAM   BANK0   BANK1   BANK2   BANK3   BANK4   BANK5   BANK6   BANK7   BANK8   BANK9  BANK10  BANK1
      +1  BANK12  BANK13  BANK14  BANK15
  1366 ;;      Params:         2       0       0       0       0       0       0       0       0       0       0       0       
      +0       0       0       0       0
  1367 ;;      Locals:         0       0       0       0       0       0       0       0       0       0       0       0       
      +0       0       0       0       0
  1368 ;;      Temps:          2       0       0       0       0       0       0       0       0       0       0       0       
      +0       0       0       0       0
  1369 ;;      Totals:         4       0       0       0       0       0       0       0       0       0       0       0       
      +0       0       0       0       0
  1370 ;;Total ram usage:        4 bytes
  1371 ;; Hardware stack levels used: 1
  1372 ;; Hardware stack levels required when called: 2
  1373 ;; This function calls:
  1374 ;;		Nothing
  1375 ;; This function is called by:
  1376 ;;		_Interrupt_INTx_Init
  1377 ;; This function uses a non-reentrant model
  1378 ;;
  1379                           
  1380                           	psect	text9
  1381   00129A                     __ptext9:
  1382                           	callstack 0
  1383   00129A                     _Interrupt_INTx_Priority_Init:
  1384                           	callstack 27
  1385   00129A                     
  1386                           ;MCAL_LAYER/INTERRUPT/mcal_External_Interrupt.c: 132:     if(((void*)0) == Int_Obj)
  1387   00129A  5029               	movf	Interrupt_INTx_Priority_Init@Int_Obj^0,w,c
  1388   00129C  102A               	iorwf	(Interrupt_INTx_Priority_Init@Int_Obj+1)^0,w,c
  1389   00129E  A4D8               	btfss	status,2,c
  1390   0012A0  EF54  F009         	goto	u1361
  1391   0012A4  EF56  F009         	goto	u1360
  1392   0012A8                     u1361:
  1393   0012A8  EF9E  F009         	goto	l2640
  1394   0012AC                     u1360:
  1395   0012AC                     l2628:
  1396                           
  1397                           ;MCAL_LAYER/INTERRUPT/mcal_External_Interrupt.c: 135:     }
  1398   0012AC  EFB9  F009         	goto	l2642
  1399   0012B0                     l524:
  1400   0012B0  8CF0               	bsf	240,6,c	;volatile
  1401   0012B2  EF83  F009         	goto	l2636
  1402   0012B6                     l526:
  1403   0012B6  9CF0               	bcf	240,6,c	;volatile
  1404   0012B8  EF83  F009         	goto	l2636
  1405   0012BC                     l2630:
  1406                           
  1407                           ;MCAL_LAYER/INTERRUPT/mcal_External_Interrupt.c: 144:                 }
  1408   0012BC  EF83  F009         	goto	l2636
  1409   0012C0                     l2632:
  1410   0012C0  EE20 F002          	lfsr	2,2
  1411   0012C4  5029               	movf	Interrupt_INTx_Priority_Init@Int_Obj^0,w,c
  1412   0012C6  26D9               	addwf	fsr2l,f,c
  1413   0012C8  502A               	movf	(Interrupt_INTx_Priority_Init@Int_Obj+1)^0,w,c
  1414   0012CA  22DA               	addwfc	fsr2h,f,c
  1415   0012CC  50DF               	movf	indf2,w,c
  1416   0012CE  6E2B               	movwf	??_Interrupt_INTx_Priority_Init^0,c
  1417   0012D0  6A2C               	clrf	(??_Interrupt_INTx_Priority_Init+1)^0,c
  1418                           
  1419                           ; Switch on 2 bytes has been partitioned into a top level switch of size 1, and 1 sub-sw
      +                          itches
  1420                           ; Switch size 1, requested type "simple"
  1421                           ; Number of cases is 1, Range of values is 0 to 0
  1422                           ; switch strategies available:
  1423                           ; Name         Instructions Cycles
  1424                           ; simple_byte            4     3 (average)
  1425                           ;	Chosen strategy is simple_byte
  1426   0012D2  502C               	movf	(??_Interrupt_INTx_Priority_Init+1)^0,w,c
  1427   0012D4  0A00               	xorlw	0	; case 0
  1428   0012D6  B4D8               	btfsc	status,2,c
  1429   0012D8  EF70  F009         	goto	l3074
  1430   0012DC  EF5E  F009         	goto	l2630
  1431   0012E0                     l3074:
  1432                           
  1433                           ; Switch size 1, requested type "simple"
  1434                           ; Number of cases is 2, Range of values is 0 to 1
  1435                           ; switch strategies available:
  1436                           ; Name         Instructions Cycles
  1437                           ; simple_byte            7     4 (average)
  1438                           ;	Chosen strategy is simple_byte
  1439   0012E0  502B               	movf	??_Interrupt_INTx_Priority_Init^0,w,c
  1440   0012E2  0A00               	xorlw	0	; case 0
  1441   0012E4  B4D8               	btfsc	status,2,c
  1442   0012E6  EF5B  F009         	goto	l526
  1443   0012EA  0A01               	xorlw	1	; case 1
  1444   0012EC  B4D8               	btfsc	status,2,c
  1445   0012EE  EF58  F009         	goto	l524
  1446   0012F2  EF5E  F009         	goto	l2630
  1447   0012F6                     l530:
  1448   0012F6  8EF0               	bsf	240,7,c	;volatile
  1449   0012F8  EF56  F009         	goto	l2628
  1450   0012FC                     l532:
  1451   0012FC  9EF0               	bcf	240,7,c	;volatile
  1452   0012FE  EF56  F009         	goto	l2628
  1453   001302                     l2634:
  1454                           
  1455                           ;MCAL_LAYER/INTERRUPT/mcal_External_Interrupt.c: 150:                 }
  1456   001302  EF56  F009         	goto	l2628
  1457   001306                     l2636:
  1458   001306  EE20 F002          	lfsr	2,2
  1459   00130A  5029               	movf	Interrupt_INTx_Priority_Init@Int_Obj^0,w,c
  1460   00130C  26D9               	addwf	fsr2l,f,c
  1461   00130E  502A               	movf	(Interrupt_INTx_Priority_Init@Int_Obj+1)^0,w,c
  1462   001310  22DA               	addwfc	fsr2h,f,c
  1463   001312  50DF               	movf	indf2,w,c
  1464   001314  6E2B               	movwf	??_Interrupt_INTx_Priority_Init^0,c
  1465   001316  6A2C               	clrf	(??_Interrupt_INTx_Priority_Init+1)^0,c
  1466                           
  1467                           ; Switch on 2 bytes has been partitioned into a top level switch of size 1, and 1 sub-sw
      +                          itches
  1468                           ; Switch size 1, requested type "simple"
  1469                           ; Number of cases is 1, Range of values is 0 to 0
  1470                           ; switch strategies available:
  1471                           ; Name         Instructions Cycles
  1472                           ; simple_byte            4     3 (average)
  1473                           ;	Chosen strategy is simple_byte
  1474   001318  502C               	movf	(??_Interrupt_INTx_Priority_Init+1)^0,w,c
  1475   00131A  0A00               	xorlw	0	; case 0
  1476   00131C  B4D8               	btfsc	status,2,c
  1477   00131E  EF93  F009         	goto	l3076
  1478   001322  EF81  F009         	goto	l2634
  1479   001326                     l3076:
  1480                           
  1481                           ; Switch size 1, requested type "simple"
  1482                           ; Number of cases is 2, Range of values is 0 to 1
  1483                           ; switch strategies available:
  1484                           ; Name         Instructions Cycles
  1485                           ; simple_byte            7     4 (average)
  1486                           ;	Chosen strategy is simple_byte
  1487   001326  502B               	movf	??_Interrupt_INTx_Priority_Init^0,w,c
  1488   001328  0A00               	xorlw	0	; case 0
  1489   00132A  B4D8               	btfsc	status,2,c
  1490   00132C  EF7E  F009         	goto	l532
  1491   001330  0A01               	xorlw	1	; case 1
  1492   001332  B4D8               	btfsc	status,2,c
  1493   001334  EF7B  F009         	goto	l530
  1494   001338  EF81  F009         	goto	l2634
  1495   00133C                     l2640:
  1496   00133C  EE20 F001          	lfsr	2,1
  1497   001340  5029               	movf	Interrupt_INTx_Priority_Init@Int_Obj^0,w,c
  1498   001342  26D9               	addwf	fsr2l,f,c
  1499   001344  502A               	movf	(Interrupt_INTx_Priority_Init@Int_Obj+1)^0,w,c
  1500   001346  22DA               	addwfc	fsr2h,f,c
  1501   001348  50DF               	movf	indf2,w,c
  1502   00134A  6E2B               	movwf	??_Interrupt_INTx_Priority_Init^0,c
  1503   00134C  6A2C               	clrf	(??_Interrupt_INTx_Priority_Init+1)^0,c
  1504                           
  1505                           ; Switch on 2 bytes has been partitioned into a top level switch of size 1, and 1 sub-sw
      +                          itches
  1506                           ; Switch size 1, requested type "simple"
  1507                           ; Number of cases is 1, Range of values is 0 to 0
  1508                           ; switch strategies available:
  1509                           ; Name         Instructions Cycles
  1510                           ; simple_byte            4     3 (average)
  1511                           ;	Chosen strategy is simple_byte
  1512   00134E  502C               	movf	(??_Interrupt_INTx_Priority_Init+1)^0,w,c
  1513   001350  0A00               	xorlw	0	; case 0
  1514   001352  B4D8               	btfsc	status,2,c
  1515   001354  EFAE  F009         	goto	l3078
  1516   001358  EF56  F009         	goto	l2628
  1517   00135C                     l3078:
  1518                           
  1519                           ; Switch size 1, requested type "simple"
  1520                           ; Number of cases is 2, Range of values is 1 to 2
  1521                           ; switch strategies available:
  1522                           ; Name         Instructions Cycles
  1523                           ; simple_byte            7     4 (average)
  1524                           ;	Chosen strategy is simple_byte
  1525   00135C  502B               	movf	??_Interrupt_INTx_Priority_Init^0,w,c
  1526   00135E  0A01               	xorlw	1	; case 1
  1527   001360  B4D8               	btfsc	status,2,c
  1528   001362  EF60  F009         	goto	l2632
  1529   001366  0A03               	xorlw	3	; case 2
  1530   001368  B4D8               	btfsc	status,2,c
  1531   00136A  EF83  F009         	goto	l2636
  1532   00136E  EF56  F009         	goto	l2628
  1533   001372                     l2642:
  1534                           
  1535                           ;MCAL_LAYER/INTERRUPT/mcal_External_Interrupt.c: 154:     return ret ;
  1536   001372  0E00               	movlw	0
  1537   001374  0012               	return		;funcret
  1538   001376                     __end_of_Interrupt_INTx_Priority_Init:
  1539                           	callstack 0
  1540                           
  1541 ;; *************** function _Interrupt_INTx_Pin_Init *****************
  1542 ;; Defined at:
  1543 ;;		line 189 in file "MCAL_LAYER/INTERRUPT/mcal_External_Interrupt.c"
  1544 ;; Parameters:    Size  Location     Type
  1545 ;;  Int_Obj         2   11[COMRAM] PTR const struct .
  1546 ;;		 -> INT0_INTERRUPT(6), 
  1547 ;; Auto vars:     Size  Location     Type
  1548 ;;  ret             1   13[COMRAM] unsigned char 
  1549 ;; Return value:  Size  Location     Type
  1550 ;;                  1    wreg      unsigned char 
  1551 ;; Registers used:
  1552 ;;		wreg, fsr2l, fsr2h, status,2, status,0, prodl, prodh, cstack
  1553 ;; Tracked objects:
  1554 ;;		On entry : 0/0
  1555 ;;		On exit  : 0/0
  1556 ;;		Unchanged: 0/0
  1557 ;; Data sizes:     COMRAM   BANK0   BANK1   BANK2   BANK3   BANK4   BANK5   BANK6   BANK7   BANK8   BANK9  BANK10  BANK1
      +1  BANK12  BANK13  BANK14  BANK15
  1558 ;;      Params:         2       0       0       0       0       0       0       0       0       0       0       0       
      +0       0       0       0       0
  1559 ;;      Locals:         1       0       0       0       0       0       0       0       0       0       0       0       
      +0       0       0       0       0
  1560 ;;      Temps:          0       0       0       0       0       0       0       0       0       0       0       0       
      +0       0       0       0       0
  1561 ;;      Totals:         3       0       0       0       0       0       0       0       0       0       0       0       
      +0       0       0       0       0
  1562 ;;Total ram usage:        3 bytes
  1563 ;; Hardware stack levels used: 1
  1564 ;; Hardware stack levels required when called: 3
  1565 ;; This function calls:
  1566 ;;		_gpio_pin_direction_init
  1567 ;; This function is called by:
  1568 ;;		_Interrupt_INTx_Init
  1569 ;; This function uses a non-reentrant model
  1570 ;;
  1571                           
  1572                           	psect	text10
  1573   0018DC                     __ptext10:
  1574                           	callstack 0
  1575   0018DC                     _Interrupt_INTx_Pin_Init:
  1576                           	callstack 26
  1577   0018DC                     
  1578                           ;MCAL_LAYER/INTERRUPT/mcal_External_Interrupt.c: 191:     if(((void*)0) == Int_Obj)
  1579   0018DC  5032               	movf	Interrupt_INTx_Pin_Init@Int_Obj^0,w,c
  1580   0018DE  1033               	iorwf	(Interrupt_INTx_Pin_Init@Int_Obj+1)^0,w,c
  1581   0018E0  A4D8               	btfss	status,2,c
  1582   0018E2  EF75  F00C         	goto	u1351
  1583   0018E6  EF77  F00C         	goto	u1350
  1584   0018EA                     u1351:
  1585   0018EA  EF7B  F00C         	goto	l2618
  1586   0018EE                     u1350:
  1587   0018EE                     
  1588                           ;MCAL_LAYER/INTERRUPT/mcal_External_Interrupt.c: 192:     {;MCAL_LAYER/INTERRUPT/mcal_Ex
      +                          ternal_Interrupt.c: 193:         ret = (Std_ReturnType)0x00 ;
  1589   0018EE  0E00               	movlw	0
  1590   0018F0  6E34               	movwf	Interrupt_INTx_Pin_Init@ret^0,c
  1591                           
  1592                           ;MCAL_LAYER/INTERRUPT/mcal_External_Interrupt.c: 194:     }
  1593   0018F2  EF84  F00C         	goto	l2620
  1594   0018F6                     l2618:
  1595                           
  1596                           ;MCAL_LAYER/INTERRUPT/mcal_External_Interrupt.c: 196:     {;MCAL_LAYER/INTERRUPT/mcal_Ex
      +                          ternal_Interrupt.c: 197:         ret = gpio_pin_direction_init(&(Int_Obj->PIN));
  1597   0018F6  0E03               	movlw	3
  1598   0018F8  2432               	addwf	Interrupt_INTx_Pin_Init@Int_Obj^0,w,c
  1599   0018FA  6E29               	movwf	gpio_pin_direction_init@_pin_config^0,c
  1600   0018FC  0E00               	movlw	0
  1601   0018FE  2033               	addwfc	(Interrupt_INTx_Pin_Init@Int_Obj+1)^0,w,c
  1602   001900  6E2A               	movwf	(gpio_pin_direction_init@_pin_config+1)^0,c
  1603   001902  EC09  F008         	call	_gpio_pin_direction_init	;wreg free
  1604   001906  6E34               	movwf	Interrupt_INTx_Pin_Init@ret^0,c
  1605   001908                     l2620:
  1606                           
  1607                           ;MCAL_LAYER/INTERRUPT/mcal_External_Interrupt.c: 199:     return ret ;
  1608   001908  5034               	movf	Interrupt_INTx_Pin_Init@ret^0,w,c
  1609   00190A  0012               	return		;funcret
  1610   00190C                     __end_of_Interrupt_INTx_Pin_Init:
  1611                           	callstack 0
  1612                           
  1613 ;; *************** function _gpio_pin_direction_init *****************
  1614 ;; Defined at:
  1615 ;;		line 22 in file "MCAL_LAYER/GPIO/HAL_GPIO.c"
  1616 ;; Parameters:    Size  Location     Type
  1617 ;;  _pin_config     2    2[COMRAM] PTR const struct .
  1618 ;;		 -> INT0_INTERRUPT(6), Relay_init@rel(1), led_init@Pin_obj(1), pin2(1), 
  1619 ;;		 -> pin1(1), 
  1620 ;; Auto vars:     Size  Location     Type
  1621 ;;  ret             1   10[COMRAM] unsigned char 
  1622 ;; Return value:  Size  Location     Type
  1623 ;;                  1    wreg      unsigned char 
  1624 ;; Registers used:
  1625 ;;		wreg, fsr2l, fsr2h, status,2, status,0, prodl, prodh
  1626 ;; Tracked objects:
  1627 ;;		On entry : 0/0
  1628 ;;		On exit  : 0/0
  1629 ;;		Unchanged: 0/0
  1630 ;; Data sizes:     COMRAM   BANK0   BANK1   BANK2   BANK3   BANK4   BANK5   BANK6   BANK7   BANK8   BANK9  BANK10  BANK1
      +1  BANK12  BANK13  BANK14  BANK15
  1631 ;;      Params:         2       0       0       0       0       0       0       0       0       0       0       0       
      +0       0       0       0       0
  1632 ;;      Locals:         1       0       0       0       0       0       0       0       0       0       0       0       
      +0       0       0       0       0
  1633 ;;      Temps:          6       0       0       0       0       0       0       0       0       0       0       0       
      +0       0       0       0       0
  1634 ;;      Totals:         9       0       0       0       0       0       0       0       0       0       0       0       
      +0       0       0       0       0
  1635 ;;Total ram usage:        9 bytes
  1636 ;; Hardware stack levels used: 1
  1637 ;; Hardware stack levels required when called: 2
  1638 ;; This function calls:
  1639 ;;		Nothing
  1640 ;; This function is called by:
  1641 ;;		_led_init
  1642 ;;		_Interrupt_INTx_Pin_Init
  1643 ;;		_Dc_Motor_INIT
  1644 ;;		_keybad_init
  1645 ;;		_button_init
  1646 ;;		_Relay_init
  1647 ;;		_gpio_pin_init
  1648 ;; This function uses a non-reentrant model
  1649 ;;
  1650                           
  1651                           	psect	text11
  1652   001012                     __ptext11:
  1653                           	callstack 0
  1654   001012                     _gpio_pin_direction_init:
  1655                           	callstack 27
  1656   001012                     
  1657                           ;MCAL_LAYER/GPIO/HAL_GPIO.c: 23:     Std_ReturnType ret = (Std_ReturnType)0x01 ;
  1658   001012  0E01               	movlw	1
  1659   001014  6E31               	movwf	gpio_pin_direction_init@ret^0,c
  1660   001016                     
  1661                           ;MCAL_LAYER/GPIO/HAL_GPIO.c: 24:     if(((void*)0) == _pin_config)
  1662   001016  5029               	movf	gpio_pin_direction_init@_pin_config^0,w,c
  1663   001018  102A               	iorwf	(gpio_pin_direction_init@_pin_config+1)^0,w,c
  1664   00101A  A4D8               	btfss	status,2,c
  1665   00101C  EF12  F008         	goto	u1191
  1666   001020  EF14  F008         	goto	u1190
  1667   001024                     u1191:
  1668   001024  EF18  F008         	goto	l2500
  1669   001028                     u1190:
  1670   001028                     l2498:
  1671                           
  1672                           ;MCAL_LAYER/GPIO/HAL_GPIO.c: 25:     {;MCAL_LAYER/GPIO/HAL_GPIO.c: 26:        ret = (Std
      +                          _ReturnType)0x00 ;
  1673   001028  0E00               	movlw	0
  1674   00102A  6E31               	movwf	gpio_pin_direction_init@ret^0,c
  1675                           
  1676                           ;MCAL_LAYER/GPIO/HAL_GPIO.c: 27:     }
  1677   00102C  EFBA  F008         	goto	l2514
  1678   001030                     l2500:
  1679   001030  C029  FFD9         	movff	gpio_pin_direction_init@_pin_config,fsr2l
  1680   001034  C02A  FFDA         	movff	gpio_pin_direction_init@_pin_config+1,fsr2h
  1681   001038  30DF               	rrcf	223,w,c
  1682   00103A  32E8               	rrcf	wreg,f,c
  1683   00103C  32E8               	rrcf	wreg,f,c
  1684   00103E  0B07               	andlw	7
  1685   001040  6E2B               	movwf	??_gpio_pin_direction_init^0,c
  1686   001042  0E08               	movlw	8
  1687   001044  602B               	cpfslt	??_gpio_pin_direction_init^0,c
  1688   001046  EF27  F008         	goto	u1201
  1689   00104A  EF29  F008         	goto	u1200
  1690   00104E                     u1201:
  1691   00104E  EF14  F008         	goto	l2498
  1692   001052                     u1200:
  1693   001052  C029  FFD9         	movff	gpio_pin_direction_init@_pin_config,fsr2l
  1694   001056  C02A  FFDA         	movff	gpio_pin_direction_init@_pin_config+1,fsr2h
  1695   00105A  50DF               	movf	223,w,c
  1696   00105C  0B07               	andlw	7
  1697   00105E  6E2B               	movwf	??_gpio_pin_direction_init^0,c
  1698   001060  0E03               	movlw	3
  1699   001062  642B               	cpfsgt	??_gpio_pin_direction_init^0,c
  1700   001064  EF36  F008         	goto	u1211
  1701   001068  EF38  F008         	goto	u1210
  1702   00106C                     u1211:
  1703   00106C  EF99  F008         	goto	l2512
  1704   001070                     u1210:
  1705   001070  EF14  F008         	goto	l2498
  1706   001074                     l2506:
  1707                           
  1708                           ;MCAL_LAYER/GPIO/HAL_GPIO.c: 37:                 (*tris_registers[_pin_config->Port] &= 
      +                          ~((uint8_t)1<<_pin_config->Pin_Number));
  1709   001074  C029  FFD9         	movff	gpio_pin_direction_init@_pin_config,fsr2l
  1710   001078  C02A  FFDA         	movff	gpio_pin_direction_init@_pin_config+1,fsr2h
  1711   00107C  30DF               	rrcf	223,w,c
  1712   00107E  32E8               	rrcf	wreg,f,c
  1713   001080  32E8               	rrcf	wreg,f,c
  1714   001082  0B07               	andlw	7
  1715   001084  6E2B               	movwf	??_gpio_pin_direction_init^0,c
  1716   001086  0E01               	movlw	1
  1717   001088  6E2C               	movwf	(??_gpio_pin_direction_init+1)^0,c
  1718   00108A  2A2B               	incf	??_gpio_pin_direction_init^0,f,c
  1719   00108C  EF4A  F008         	goto	u1224
  1720   001090                     u1225:
  1721   001090  90D8               	bcf	status,0,c
  1722   001092  362C               	rlcf	(??_gpio_pin_direction_init+1)^0,f,c
  1723   001094                     u1224:
  1724   001094  2E2B               	decfsz	??_gpio_pin_direction_init^0,f,c
  1725   001096  EF48  F008         	goto	u1225
  1726   00109A  502C               	movf	(??_gpio_pin_direction_init+1)^0,w,c
  1727   00109C  0AFF               	xorlw	255
  1728   00109E  6E2D               	movwf	(??_gpio_pin_direction_init+2)^0,c
  1729   0010A0  C029  FFD9         	movff	gpio_pin_direction_init@_pin_config,fsr2l
  1730   0010A4  C02A  FFDA         	movff	gpio_pin_direction_init@_pin_config+1,fsr2h
  1731   0010A8  50DF               	movf	223,w,c
  1732   0010AA  0B07               	andlw	7
  1733   0010AC  6E2E               	movwf	(??_gpio_pin_direction_init+3)^0,c
  1734   0010AE  502E               	movf	(??_gpio_pin_direction_init+3)^0,w,c
  1735   0010B0  0D02               	mullw	2
  1736   0010B2  0E15               	movlw	low _tris_registers
  1737   0010B4  24F3               	addwf	243,w,c
  1738   0010B6  6ED9               	movwf	fsr2l,c
  1739   0010B8  0E00               	movlw	high _tris_registers
  1740   0010BA  20F4               	addwfc	prodh,w,c
  1741   0010BC  6EDA               	movwf	fsr2h,c
  1742   0010BE  CFDE F02F          	movff	postinc2,??_gpio_pin_direction_init+4
  1743   0010C2  CFDD F030          	movff	postdec2,??_gpio_pin_direction_init+5
  1744   0010C6  C02F  FFD9         	movff	??_gpio_pin_direction_init+4,fsr2l
  1745   0010CA  C030  FFDA         	movff	??_gpio_pin_direction_init+5,fsr2h
  1746   0010CE  502D               	movf	(??_gpio_pin_direction_init+2)^0,w,c
  1747   0010D0  16DF               	andwf	indf2,f,c
  1748                           
  1749                           ;MCAL_LAYER/GPIO/HAL_GPIO.c: 38:                 break;
  1750   0010D2  EFBA  F008         	goto	l2514
  1751   0010D6                     l2508:
  1752                           
  1753                           ;MCAL_LAYER/GPIO/HAL_GPIO.c: 40:                 (*tris_registers[_pin_config->Port] |= 
      +                          ((uint8_t)1<<_pin_config->Pin_Number));
  1754   0010D6  C029  FFD9         	movff	gpio_pin_direction_init@_pin_config,fsr2l
  1755   0010DA  C02A  FFDA         	movff	gpio_pin_direction_init@_pin_config+1,fsr2h
  1756   0010DE  30DF               	rrcf	223,w,c
  1757   0010E0  32E8               	rrcf	wreg,f,c
  1758   0010E2  32E8               	rrcf	wreg,f,c
  1759   0010E4  0B07               	andlw	7
  1760   0010E6  6E2B               	movwf	??_gpio_pin_direction_init^0,c
  1761   0010E8  0E01               	movlw	1
  1762   0010EA  6E2C               	movwf	(??_gpio_pin_direction_init+1)^0,c
  1763   0010EC  2A2B               	incf	??_gpio_pin_direction_init^0,f,c
  1764   0010EE  EF7B  F008         	goto	u1234
  1765   0010F2                     u1235:
  1766   0010F2  90D8               	bcf	status,0,c
  1767   0010F4  362C               	rlcf	(??_gpio_pin_direction_init+1)^0,f,c
  1768   0010F6                     u1234:
  1769   0010F6  2E2B               	decfsz	??_gpio_pin_direction_init^0,f,c
  1770   0010F8  EF79  F008         	goto	u1235
  1771   0010FC  C029  FFD9         	movff	gpio_pin_direction_init@_pin_config,fsr2l
  1772   001100  C02A  FFDA         	movff	gpio_pin_direction_init@_pin_config+1,fsr2h
  1773   001104  50DF               	movf	223,w,c
  1774   001106  0B07               	andlw	7
  1775   001108  6E2D               	movwf	(??_gpio_pin_direction_init+2)^0,c
  1776   00110A  502D               	movf	(??_gpio_pin_direction_init+2)^0,w,c
  1777   00110C  0D02               	mullw	2
  1778   00110E  0E15               	movlw	low _tris_registers
  1779   001110  24F3               	addwf	243,w,c
  1780   001112  6ED9               	movwf	fsr2l,c
  1781   001114  0E00               	movlw	high _tris_registers
  1782   001116  20F4               	addwfc	prodh,w,c
  1783   001118  6EDA               	movwf	fsr2h,c
  1784   00111A  CFDE F02E          	movff	postinc2,??_gpio_pin_direction_init+3
  1785   00111E  CFDD F02F          	movff	postdec2,??_gpio_pin_direction_init+4
  1786   001122  C02E  FFD9         	movff	??_gpio_pin_direction_init+3,fsr2l
  1787   001126  C02F  FFDA         	movff	??_gpio_pin_direction_init+4,fsr2h
  1788   00112A  502C               	movf	(??_gpio_pin_direction_init+1)^0,w,c
  1789   00112C  12DF               	iorwf	indf2,f,c
  1790                           
  1791                           ;MCAL_LAYER/GPIO/HAL_GPIO.c: 41:                 break;
  1792   00112E  EFBA  F008         	goto	l2514
  1793   001132                     l2512:
  1794   001132  C029  FFD9         	movff	gpio_pin_direction_init@_pin_config,fsr2l
  1795   001136  C02A  FFDA         	movff	gpio_pin_direction_init@_pin_config+1,fsr2h
  1796   00113A  BCDF               	btfsc	indf2,6,c
  1797   00113C  EFA2  F008         	goto	u1241
  1798   001140  EFA5  F008         	goto	u1240
  1799   001144                     u1241:
  1800   001144  0E01               	movlw	1
  1801   001146  EFA6  F008         	goto	u1250
  1802   00114A                     u1240:
  1803   00114A  0E00               	movlw	0
  1804   00114C                     u1250:
  1805   00114C  6E2B               	movwf	??_gpio_pin_direction_init^0,c
  1806   00114E  6A2C               	clrf	(??_gpio_pin_direction_init+1)^0,c
  1807                           
  1808                           ; Switch on 2 bytes has been partitioned into a top level switch of size 1, and 1 sub-sw
      +                          itches
  1809                           ; Switch size 1, requested type "simple"
  1810                           ; Number of cases is 1, Range of values is 0 to 0
  1811                           ; switch strategies available:
  1812                           ; Name         Instructions Cycles
  1813                           ; simple_byte            4     3 (average)
  1814                           ;	Chosen strategy is simple_byte
  1815   001150  502C               	movf	(??_gpio_pin_direction_init+1)^0,w,c
  1816   001152  0A00               	xorlw	0	; case 0
  1817   001154  B4D8               	btfsc	status,2,c
  1818   001156  EFAF  F008         	goto	l3080
  1819   00115A  EF14  F008         	goto	l2498
  1820   00115E                     l3080:
  1821                           
  1822                           ; Switch size 1, requested type "simple"
  1823                           ; Number of cases is 2, Range of values is 0 to 1
  1824                           ; switch strategies available:
  1825                           ; Name         Instructions Cycles
  1826                           ; simple_byte            7     4 (average)
  1827                           ;	Chosen strategy is simple_byte
  1828   00115E  502B               	movf	??_gpio_pin_direction_init^0,w,c
  1829   001160  0A00               	xorlw	0	; case 0
  1830   001162  B4D8               	btfsc	status,2,c
  1831   001164  EF3A  F008         	goto	l2506
  1832   001168  0A01               	xorlw	1	; case 1
  1833   00116A  B4D8               	btfsc	status,2,c
  1834   00116C  EF6B  F008         	goto	l2508
  1835   001170  EF14  F008         	goto	l2498
  1836   001174                     l2514:
  1837                           
  1838                           ;MCAL_LAYER/GPIO/HAL_GPIO.c: 46:     return ret ;
  1839   001174  5031               	movf	gpio_pin_direction_init@ret^0,w,c
  1840   001176  0012               	return		;funcret
  1841   001178                     __end_of_gpio_pin_direction_init:
  1842                           	callstack 0
  1843                           
  1844 ;; *************** function _Interrupt_INTx_Enable *****************
  1845 ;; Defined at:
  1846 ;;		line 65 in file "MCAL_LAYER/INTERRUPT/mcal_External_Interrupt.c"
  1847 ;; Parameters:    Size  Location     Type
  1848 ;;  Int_Obj         2    2[COMRAM] PTR const struct .
  1849 ;;		 -> INT0_INTERRUPT(6), 
  1850 ;; Auto vars:     Size  Location     Type
  1851 ;;  ret             1    6[COMRAM] unsigned char 
  1852 ;; Return value:  Size  Location     Type
  1853 ;;                  1    wreg      unsigned char 
  1854 ;; Registers used:
  1855 ;;		wreg, fsr2l, fsr2h, status,2, status,0
  1856 ;; Tracked objects:
  1857 ;;		On entry : 0/0
  1858 ;;		On exit  : 0/0
  1859 ;;		Unchanged: 0/0
  1860 ;; Data sizes:     COMRAM   BANK0   BANK1   BANK2   BANK3   BANK4   BANK5   BANK6   BANK7   BANK8   BANK9  BANK10  BANK1
      +1  BANK12  BANK13  BANK14  BANK15
  1861 ;;      Params:         2       0       0       0       0       0       0       0       0       0       0       0       
      +0       0       0       0       0
  1862 ;;      Locals:         1       0       0       0       0       0       0       0       0       0       0       0       
      +0       0       0       0       0
  1863 ;;      Temps:          2       0       0       0       0       0       0       0       0       0       0       0       
      +0       0       0       0       0
  1864 ;;      Totals:         5       0       0       0       0       0       0       0       0       0       0       0       
      +0       0       0       0       0
  1865 ;;Total ram usage:        5 bytes
  1866 ;; Hardware stack levels used: 1
  1867 ;; Hardware stack levels required when called: 2
  1868 ;; This function calls:
  1869 ;;		Nothing
  1870 ;; This function is called by:
  1871 ;;		_Interrupt_INTx_Init
  1872 ;; This function uses a non-reentrant model
  1873 ;;
  1874                           
  1875                           	psect	text12
  1876   001656                     __ptext12:
  1877                           	callstack 0
  1878   001656                     _Interrupt_INTx_Enable:
  1879                           	callstack 27
  1880   001656                     
  1881                           ;MCAL_LAYER/INTERRUPT/mcal_External_Interrupt.c: 66:     Std_ReturnType ret = (Std_Retur
      +                          nType)0x01 ;
  1882   001656  0E01               	movlw	1
  1883   001658  6E2D               	movwf	Interrupt_INTx_Enable@ret^0,c
  1884   00165A                     
  1885                           ;MCAL_LAYER/INTERRUPT/mcal_External_Interrupt.c: 67:     if(((void*)0) == Int_Obj)
  1886   00165A  5029               	movf	Interrupt_INTx_Enable@Int_Obj^0,w,c
  1887   00165C  102A               	iorwf	(Interrupt_INTx_Enable@Int_Obj+1)^0,w,c
  1888   00165E  A4D8               	btfss	status,2,c
  1889   001660  EF34  F00B         	goto	u1391
  1890   001664  EF36  F00B         	goto	u1390
  1891   001668                     u1391:
  1892   001668  EF4C  F00B         	goto	l2732
  1893   00166C                     u1390:
  1894   00166C                     l2728:
  1895                           
  1896                           ;MCAL_LAYER/INTERRUPT/mcal_External_Interrupt.c: 68:     {;MCAL_LAYER/INTERRUPT/mcal_Ext
      +                          ernal_Interrupt.c: 69:         ret = (Std_ReturnType)0x00 ;
  1897   00166C  0E00               	movlw	0
  1898   00166E  6E2D               	movwf	Interrupt_INTx_Enable@ret^0,c
  1899                           
  1900                           ;MCAL_LAYER/INTERRUPT/mcal_External_Interrupt.c: 70:     }
  1901   001670  EF6B  F00B         	goto	l2734
  1902   001674                     l500:
  1903                           
  1904                           ;MCAL_LAYER/INTERRUPT/mcal_External_Interrupt.c: 76:                     (RCONbits.IPEN 
      +                          = 0x01);
  1905   001674  8ED0               	bsf	208,7,c	;volatile
  1906                           
  1907                           ;MCAL_LAYER/INTERRUPT/mcal_External_Interrupt.c: 77:                     (INTCONbits.GIE
      +                          H = 0x01);
  1908   001676  8EF2               	bsf	242,7,c	;volatile
  1909                           
  1910                           ;MCAL_LAYER/INTERRUPT/mcal_External_Interrupt.c: 78:                     (INTCONbits.GIE
      +                          L = 0x01);
  1911   001678  8CF2               	bsf	242,6,c	;volatile
  1912                           
  1913                           ;MCAL_LAYER/INTERRUPT/mcal_External_Interrupt.c: 83:                   (INTCONbits.INT0E
      +                           = 0x01);
  1914   00167A  88F2               	bsf	242,4,c	;volatile
  1915                           
  1916                           ;MCAL_LAYER/INTERRUPT/mcal_External_Interrupt.c: 84:                   break ;
  1917   00167C  EF6B  F00B         	goto	l2734
  1918   001680                     l502:
  1919                           
  1920                           ;MCAL_LAYER/INTERRUPT/mcal_External_Interrupt.c: 87:                     (RCONbits.IPEN 
      +                          = 0x01);
  1921   001680  8ED0               	bsf	208,7,c	;volatile
  1922                           
  1923                           ;MCAL_LAYER/INTERRUPT/mcal_External_Interrupt.c: 88:                     (INTCONbits.GIE
      +                          H = 0x01);
  1924   001682  8EF2               	bsf	242,7,c	;volatile
  1925                           
  1926                           ;MCAL_LAYER/INTERRUPT/mcal_External_Interrupt.c: 89:                     (INTCONbits.GIE
      +                          L = 0x01);
  1927   001684  8CF2               	bsf	242,6,c	;volatile
  1928                           
  1929                           ;MCAL_LAYER/INTERRUPT/mcal_External_Interrupt.c: 94:                   (INTCON3bits.INT1
      +                          E = 0x01);
  1930   001686  86F0               	bsf	240,3,c	;volatile
  1931                           
  1932                           ;MCAL_LAYER/INTERRUPT/mcal_External_Interrupt.c: 95:                   break ;
  1933   001688  EF6B  F00B         	goto	l2734
  1934   00168C                     l503:
  1935                           
  1936                           ;MCAL_LAYER/INTERRUPT/mcal_External_Interrupt.c: 98:                     (RCONbits.IPEN 
      +                          = 0x01);
  1937   00168C  8ED0               	bsf	208,7,c	;volatile
  1938                           
  1939                           ;MCAL_LAYER/INTERRUPT/mcal_External_Interrupt.c: 99:                     (INTCONbits.GIE
      +                          H = 0x01);
  1940   00168E  8EF2               	bsf	242,7,c	;volatile
  1941                           
  1942                           ;MCAL_LAYER/INTERRUPT/mcal_External_Interrupt.c: 100:                     (INTCONbits.GI
      +                          EL = 0x01);
  1943   001690  8CF2               	bsf	242,6,c	;volatile
  1944                           
  1945                           ;MCAL_LAYER/INTERRUPT/mcal_External_Interrupt.c: 105:                   (INTCON3bits.INT
      +                          2E = 0x01);
  1946   001692  88F0               	bsf	240,4,c	;volatile
  1947                           
  1948                           ;MCAL_LAYER/INTERRUPT/mcal_External_Interrupt.c: 106:                   break ;
  1949   001694  EF6B  F00B         	goto	l2734
  1950   001698                     l2732:
  1951   001698  EE20 F001          	lfsr	2,1
  1952   00169C  5029               	movf	Interrupt_INTx_Enable@Int_Obj^0,w,c
  1953   00169E  26D9               	addwf	fsr2l,f,c
  1954   0016A0  502A               	movf	(Interrupt_INTx_Enable@Int_Obj+1)^0,w,c
  1955   0016A2  22DA               	addwfc	fsr2h,f,c
  1956   0016A4  50DF               	movf	indf2,w,c
  1957   0016A6  6E2B               	movwf	??_Interrupt_INTx_Enable^0,c
  1958   0016A8  6A2C               	clrf	(??_Interrupt_INTx_Enable+1)^0,c
  1959                           
  1960                           ; Switch on 2 bytes has been partitioned into a top level switch of size 1, and 1 sub-sw
      +                          itches
  1961                           ; Switch size 1, requested type "simple"
  1962                           ; Number of cases is 1, Range of values is 0 to 0
  1963                           ; switch strategies available:
  1964                           ; Name         Instructions Cycles
  1965                           ; simple_byte            4     3 (average)
  1966                           ;	Chosen strategy is simple_byte
  1967   0016AA  502C               	movf	(??_Interrupt_INTx_Enable+1)^0,w,c
  1968   0016AC  0A00               	xorlw	0	; case 0
  1969   0016AE  B4D8               	btfsc	status,2,c
  1970   0016B0  EF5C  F00B         	goto	l3082
  1971   0016B4  EF36  F00B         	goto	l2728
  1972   0016B8                     l3082:
  1973                           
  1974                           ; Switch size 1, requested type "simple"
  1975                           ; Number of cases is 3, Range of values is 0 to 2
  1976                           ; switch strategies available:
  1977                           ; Name         Instructions Cycles
  1978                           ; simple_byte           10     6 (average)
  1979                           ;	Chosen strategy is simple_byte
  1980   0016B8  502B               	movf	??_Interrupt_INTx_Enable^0,w,c
  1981   0016BA  0A00               	xorlw	0	; case 0
  1982   0016BC  B4D8               	btfsc	status,2,c
  1983   0016BE  EF3A  F00B         	goto	l500
  1984   0016C2  0A01               	xorlw	1	; case 1
  1985   0016C4  B4D8               	btfsc	status,2,c
  1986   0016C6  EF40  F00B         	goto	l502
  1987   0016CA  0A03               	xorlw	3	; case 2
  1988   0016CC  B4D8               	btfsc	status,2,c
  1989   0016CE  EF46  F00B         	goto	l503
  1990   0016D2  EF36  F00B         	goto	l2728
  1991   0016D6                     l2734:
  1992                           
  1993                           ;MCAL_LAYER/INTERRUPT/mcal_External_Interrupt.c: 110:     return ret ;
  1994   0016D6  502D               	movf	Interrupt_INTx_Enable@ret^0,w,c
  1995   0016D8  0012               	return		;funcret
  1996   0016DA                     __end_of_Interrupt_INTx_Enable:
  1997                           	callstack 0
  1998                           
  1999 ;; *************** function _Interrupt_INTx_Edge_Init *****************
  2000 ;; Defined at:
  2001 ;;		line 157 in file "MCAL_LAYER/INTERRUPT/mcal_External_Interrupt.c"
  2002 ;; Parameters:    Size  Location     Type
  2003 ;;  Int_Obj         2    2[COMRAM] PTR const struct .
  2004 ;;		 -> INT0_INTERRUPT(6), 
  2005 ;; Auto vars:     Size  Location     Type
  2006 ;;  ret             1    0        unsigned char 
  2007 ;; Return value:  Size  Location     Type
  2008 ;;                  1    wreg      unsigned char 
  2009 ;; Registers used:
  2010 ;;		wreg, fsr2l, fsr2h, status,2, status,0
  2011 ;; Tracked objects:
  2012 ;;		On entry : 0/0
  2013 ;;		On exit  : 0/0
  2014 ;;		Unchanged: 0/0
  2015 ;; Data sizes:     COMRAM   BANK0   BANK1   BANK2   BANK3   BANK4   BANK5   BANK6   BANK7   BANK8   BANK9  BANK10  BANK1
      +1  BANK12  BANK13  BANK14  BANK15
  2016 ;;      Params:         2       0       0       0       0       0       0       0       0       0       0       0       
      +0       0       0       0       0
  2017 ;;      Locals:         0       0       0       0       0       0       0       0       0       0       0       0       
      +0       0       0       0       0
  2018 ;;      Temps:          2       0       0       0       0       0       0       0       0       0       0       0       
      +0       0       0       0       0
  2019 ;;      Totals:         4       0       0       0       0       0       0       0       0       0       0       0       
      +0       0       0       0       0
  2020 ;;Total ram usage:        4 bytes
  2021 ;; Hardware stack levels used: 1
  2022 ;; Hardware stack levels required when called: 2
  2023 ;; This function calls:
  2024 ;;		Nothing
  2025 ;; This function is called by:
  2026 ;;		_Interrupt_INTx_Init
  2027 ;; This function uses a non-reentrant model
  2028 ;;
  2029                           
  2030                           	psect	text13
  2031   001178                     __ptext13:
  2032                           	callstack 0
  2033   001178                     _Interrupt_INTx_Edge_Init:
  2034                           	callstack 27
  2035   001178                     
  2036                           ;MCAL_LAYER/INTERRUPT/mcal_External_Interrupt.c: 159:     if(((void*)0) == Int_Obj)
  2037   001178  5029               	movf	Interrupt_INTx_Edge_Init@Int_Obj^0,w,c
  2038   00117A  102A               	iorwf	(Interrupt_INTx_Edge_Init@Int_Obj+1)^0,w,c
  2039   00117C  A4D8               	btfss	status,2,c
  2040   00117E  EFC3  F008         	goto	u1371
  2041   001182  EFC5  F008         	goto	u1370
  2042   001186                     u1371:
  2043   001186  EF2C  F009         	goto	l2678
  2044   00118A                     u1370:
  2045   00118A                     l2662:
  2046                           
  2047                           ;MCAL_LAYER/INTERRUPT/mcal_External_Interrupt.c: 162:     }
  2048   00118A  EF4B  F009         	goto	l2680
  2049   00118E                     l544:
  2050   00118E  8CF1               	bsf	241,6,c	;volatile
  2051   001190  EFF0  F008         	goto	l2670
  2052   001194                     l546:
  2053   001194  9CF1               	bcf	241,6,c	;volatile
  2054   001196  EFF0  F008         	goto	l2670
  2055   00119A                     l2664:
  2056                           
  2057                           ;MCAL_LAYER/INTERRUPT/mcal_External_Interrupt.c: 171:                 }
  2058   00119A  EFF0  F008         	goto	l2670
  2059   00119E                     l2666:
  2060   00119E  C029  FFD9         	movff	Interrupt_INTx_Edge_Init@Int_Obj,fsr2l
  2061   0011A2  C02A  FFDA         	movff	Interrupt_INTx_Edge_Init@Int_Obj+1,fsr2h
  2062   0011A6  50DF               	movf	indf2,w,c
  2063   0011A8  6E2B               	movwf	??_Interrupt_INTx_Edge_Init^0,c
  2064   0011AA  6A2C               	clrf	(??_Interrupt_INTx_Edge_Init+1)^0,c
  2065                           
  2066                           ; Switch on 2 bytes has been partitioned into a top level switch of size 1, and 1 sub-sw
      +                          itches
  2067                           ; Switch size 1, requested type "simple"
  2068                           ; Number of cases is 1, Range of values is 0 to 0
  2069                           ; switch strategies available:
  2070                           ; Name         Instructions Cycles
  2071                           ; simple_byte            4     3 (average)
  2072                           ;	Chosen strategy is simple_byte
  2073   0011AC  502C               	movf	(??_Interrupt_INTx_Edge_Init+1)^0,w,c
  2074   0011AE  0A00               	xorlw	0	; case 0
  2075   0011B0  B4D8               	btfsc	status,2,c
  2076   0011B2  EFDD  F008         	goto	l3084
  2077   0011B6  EFCD  F008         	goto	l2664
  2078   0011BA                     l3084:
  2079                           
  2080                           ; Switch size 1, requested type "simple"
  2081                           ; Number of cases is 2, Range of values is 0 to 1
  2082                           ; switch strategies available:
  2083                           ; Name         Instructions Cycles
  2084                           ; simple_byte            7     4 (average)
  2085                           ;	Chosen strategy is simple_byte
  2086   0011BA  502B               	movf	??_Interrupt_INTx_Edge_Init^0,w,c
  2087   0011BC  0A00               	xorlw	0	; case 0
  2088   0011BE  B4D8               	btfsc	status,2,c
  2089   0011C0  EFCA  F008         	goto	l546
  2090   0011C4  0A01               	xorlw	1	; case 1
  2091   0011C6  B4D8               	btfsc	status,2,c
  2092   0011C8  EFC7  F008         	goto	l544
  2093   0011CC  EFCD  F008         	goto	l2664
  2094   0011D0                     l550:
  2095   0011D0  8AF1               	bsf	241,5,c	;volatile
  2096   0011D2  EF11  F009         	goto	l2674
  2097   0011D6                     l552:
  2098   0011D6  9AF1               	bcf	241,5,c	;volatile
  2099   0011D8  EF11  F009         	goto	l2674
  2100   0011DC                     l2668:
  2101                           
  2102                           ;MCAL_LAYER/INTERRUPT/mcal_External_Interrupt.c: 177:                 }
  2103   0011DC  EF11  F009         	goto	l2674
  2104   0011E0                     l2670:
  2105   0011E0  C029  FFD9         	movff	Interrupt_INTx_Edge_Init@Int_Obj,fsr2l
  2106   0011E4  C02A  FFDA         	movff	Interrupt_INTx_Edge_Init@Int_Obj+1,fsr2h
  2107   0011E8  50DF               	movf	indf2,w,c
  2108   0011EA  6E2B               	movwf	??_Interrupt_INTx_Edge_Init^0,c
  2109   0011EC  6A2C               	clrf	(??_Interrupt_INTx_Edge_Init+1)^0,c
  2110                           
  2111                           ; Switch on 2 bytes has been partitioned into a top level switch of size 1, and 1 sub-sw
      +                          itches
  2112                           ; Switch size 1, requested type "simple"
  2113                           ; Number of cases is 1, Range of values is 0 to 0
  2114                           ; switch strategies available:
  2115                           ; Name         Instructions Cycles
  2116                           ; simple_byte            4     3 (average)
  2117                           ;	Chosen strategy is simple_byte
  2118   0011EE  502C               	movf	(??_Interrupt_INTx_Edge_Init+1)^0,w,c
  2119   0011F0  0A00               	xorlw	0	; case 0
  2120   0011F2  B4D8               	btfsc	status,2,c
  2121   0011F4  EFFE  F008         	goto	l3086
  2122   0011F8  EFEE  F008         	goto	l2668
  2123   0011FC                     l3086:
  2124                           
  2125                           ; Switch size 1, requested type "simple"
  2126                           ; Number of cases is 2, Range of values is 0 to 1
  2127                           ; switch strategies available:
  2128                           ; Name         Instructions Cycles
  2129                           ; simple_byte            7     4 (average)
  2130                           ;	Chosen strategy is simple_byte
  2131   0011FC  502B               	movf	??_Interrupt_INTx_Edge_Init^0,w,c
  2132   0011FE  0A00               	xorlw	0	; case 0
  2133   001200  B4D8               	btfsc	status,2,c
  2134   001202  EFEB  F008         	goto	l552
  2135   001206  0A01               	xorlw	1	; case 1
  2136   001208  B4D8               	btfsc	status,2,c
  2137   00120A  EFE8  F008         	goto	l550
  2138   00120E  EFEE  F008         	goto	l2668
  2139   001212                     l556:
  2140   001212  88F1               	bsf	241,4,c	;volatile
  2141   001214  EFC5  F008         	goto	l2662
  2142   001218                     l558:
  2143   001218  98F1               	bcf	241,4,c	;volatile
  2144   00121A  EFC5  F008         	goto	l2662
  2145   00121E                     l2672:
  2146                           
  2147                           ;MCAL_LAYER/INTERRUPT/mcal_External_Interrupt.c: 183:                 }
  2148   00121E  EFC5  F008         	goto	l2662
  2149   001222                     l2674:
  2150   001222  EE20 F002          	lfsr	2,2
  2151   001226  5029               	movf	Interrupt_INTx_Edge_Init@Int_Obj^0,w,c
  2152   001228  26D9               	addwf	fsr2l,f,c
  2153   00122A  502A               	movf	(Interrupt_INTx_Edge_Init@Int_Obj+1)^0,w,c
  2154   00122C  22DA               	addwfc	fsr2h,f,c
  2155   00122E  50DF               	movf	indf2,w,c
  2156   001230  6E2B               	movwf	??_Interrupt_INTx_Edge_Init^0,c
  2157   001232  6A2C               	clrf	(??_Interrupt_INTx_Edge_Init+1)^0,c
  2158                           
  2159                           ; Switch on 2 bytes has been partitioned into a top level switch of size 1, and 1 sub-sw
      +                          itches
  2160                           ; Switch size 1, requested type "simple"
  2161                           ; Number of cases is 1, Range of values is 0 to 0
  2162                           ; switch strategies available:
  2163                           ; Name         Instructions Cycles
  2164                           ; simple_byte            4     3 (average)
  2165                           ;	Chosen strategy is simple_byte
  2166   001234  502C               	movf	(??_Interrupt_INTx_Edge_Init+1)^0,w,c
  2167   001236  0A00               	xorlw	0	; case 0
  2168   001238  B4D8               	btfsc	status,2,c
  2169   00123A  EF21  F009         	goto	l3088
  2170   00123E  EF0F  F009         	goto	l2672
  2171   001242                     l3088:
  2172                           
  2173                           ; Switch size 1, requested type "simple"
  2174                           ; Number of cases is 2, Range of values is 0 to 1
  2175                           ; switch strategies available:
  2176                           ; Name         Instructions Cycles
  2177                           ; simple_byte            7     4 (average)
  2178                           ;	Chosen strategy is simple_byte
  2179   001242  502B               	movf	??_Interrupt_INTx_Edge_Init^0,w,c
  2180   001244  0A00               	xorlw	0	; case 0
  2181   001246  B4D8               	btfsc	status,2,c
  2182   001248  EF0C  F009         	goto	l558
  2183   00124C  0A01               	xorlw	1	; case 1
  2184   00124E  B4D8               	btfsc	status,2,c
  2185   001250  EF09  F009         	goto	l556
  2186   001254  EF0F  F009         	goto	l2672
  2187   001258                     l2678:
  2188   001258  EE20 F001          	lfsr	2,1
  2189   00125C  5029               	movf	Interrupt_INTx_Edge_Init@Int_Obj^0,w,c
  2190   00125E  26D9               	addwf	fsr2l,f,c
  2191   001260  502A               	movf	(Interrupt_INTx_Edge_Init@Int_Obj+1)^0,w,c
  2192   001262  22DA               	addwfc	fsr2h,f,c
  2193   001264  50DF               	movf	indf2,w,c
  2194   001266  6E2B               	movwf	??_Interrupt_INTx_Edge_Init^0,c
  2195   001268  6A2C               	clrf	(??_Interrupt_INTx_Edge_Init+1)^0,c
  2196                           
  2197                           ; Switch on 2 bytes has been partitioned into a top level switch of size 1, and 1 sub-sw
      +                          itches
  2198                           ; Switch size 1, requested type "simple"
  2199                           ; Number of cases is 1, Range of values is 0 to 0
  2200                           ; switch strategies available:
  2201                           ; Name         Instructions Cycles
  2202                           ; simple_byte            4     3 (average)
  2203                           ;	Chosen strategy is simple_byte
  2204   00126A  502C               	movf	(??_Interrupt_INTx_Edge_Init+1)^0,w,c
  2205   00126C  0A00               	xorlw	0	; case 0
  2206   00126E  B4D8               	btfsc	status,2,c
  2207   001270  EF3C  F009         	goto	l3090
  2208   001274  EFC5  F008         	goto	l2662
  2209   001278                     l3090:
  2210                           
  2211                           ; Switch size 1, requested type "simple"
  2212                           ; Number of cases is 3, Range of values is 0 to 2
  2213                           ; switch strategies available:
  2214                           ; Name         Instructions Cycles
  2215                           ; simple_byte           10     6 (average)
  2216                           ;	Chosen strategy is simple_byte
  2217   001278  502B               	movf	??_Interrupt_INTx_Edge_Init^0,w,c
  2218   00127A  0A00               	xorlw	0	; case 0
  2219   00127C  B4D8               	btfsc	status,2,c
  2220   00127E  EFCF  F008         	goto	l2666
  2221   001282  0A01               	xorlw	1	; case 1
  2222   001284  B4D8               	btfsc	status,2,c
  2223   001286  EFF0  F008         	goto	l2670
  2224   00128A  0A03               	xorlw	3	; case 2
  2225   00128C  B4D8               	btfsc	status,2,c
  2226   00128E  EF11  F009         	goto	l2674
  2227   001292  EFC5  F008         	goto	l2662
  2228   001296                     l2680:
  2229                           
  2230                           ;MCAL_LAYER/INTERRUPT/mcal_External_Interrupt.c: 187:     return ret ;
  2231   001296  0E00               	movlw	0
  2232   001298  0012               	return		;funcret
  2233   00129A                     __end_of_Interrupt_INTx_Edge_Init:
  2234                           	callstack 0
  2235                           
  2236 ;; *************** function _Interrupt_INTx_Disable *****************
  2237 ;; Defined at:
  2238 ;;		line 112 in file "MCAL_LAYER/INTERRUPT/mcal_External_Interrupt.c"
  2239 ;; Parameters:    Size  Location     Type
  2240 ;;  Int_Obj         2    2[COMRAM] PTR const struct .
  2241 ;;		 -> INT0_INTERRUPT(6), 
  2242 ;; Auto vars:     Size  Location     Type
  2243 ;;  ret             1    6[COMRAM] unsigned char 
  2244 ;; Return value:  Size  Location     Type
  2245 ;;                  1    wreg      unsigned char 
  2246 ;; Registers used:
  2247 ;;		wreg, fsr2l, fsr2h, status,2, status,0
  2248 ;; Tracked objects:
  2249 ;;		On entry : 0/0
  2250 ;;		On exit  : 0/0
  2251 ;;		Unchanged: 0/0
  2252 ;; Data sizes:     COMRAM   BANK0   BANK1   BANK2   BANK3   BANK4   BANK5   BANK6   BANK7   BANK8   BANK9  BANK10  BANK1
      +1  BANK12  BANK13  BANK14  BANK15
  2253 ;;      Params:         2       0       0       0       0       0       0       0       0       0       0       0       
      +0       0       0       0       0
  2254 ;;      Locals:         1       0       0       0       0       0       0       0       0       0       0       0       
      +0       0       0       0       0
  2255 ;;      Temps:          2       0       0       0       0       0       0       0       0       0       0       0       
      +0       0       0       0       0
  2256 ;;      Totals:         5       0       0       0       0       0       0       0       0       0       0       0       
      +0       0       0       0       0
  2257 ;;Total ram usage:        5 bytes
  2258 ;; Hardware stack levels used: 1
  2259 ;; Hardware stack levels required when called: 2
  2260 ;; This function calls:
  2261 ;;		Nothing
  2262 ;; This function is called by:
  2263 ;;		_Interrupt_INTx_Init
  2264 ;; This function uses a non-reentrant model
  2265 ;;
  2266                           
  2267                           	psect	text14
  2268   001752                     __ptext14:
  2269                           	callstack 0
  2270   001752                     _Interrupt_INTx_Disable:
  2271                           	callstack 27
  2272   001752                     
  2273                           ;MCAL_LAYER/INTERRUPT/mcal_External_Interrupt.c: 113:     Std_ReturnType ret = (Std_Retu
      +                          rnType)0x01 ;
  2274   001752  0E01               	movlw	1
  2275   001754  6E2D               	movwf	Interrupt_INTx_Disable@ret^0,c
  2276   001756                     
  2277                           ;MCAL_LAYER/INTERRUPT/mcal_External_Interrupt.c: 114:     if(((void*)0) == Int_Obj)
  2278   001756  5029               	movf	Interrupt_INTx_Disable@Int_Obj^0,w,c
  2279   001758  102A               	iorwf	(Interrupt_INTx_Disable@Int_Obj+1)^0,w,c
  2280   00175A  A4D8               	btfss	status,2,c
  2281   00175C  EFB2  F00B         	goto	u1331
  2282   001760  EFB4  F00B         	goto	u1330
  2283   001764                     u1331:
  2284   001764  EFC1  F00B         	goto	l2584
  2285   001768                     u1330:
  2286   001768                     l2580:
  2287                           
  2288                           ;MCAL_LAYER/INTERRUPT/mcal_External_Interrupt.c: 115:     {;MCAL_LAYER/INTERRUPT/mcal_Ex
      +                          ternal_Interrupt.c: 116:         ret = (Std_ReturnType)0x00 ;
  2289   001768  0E00               	movlw	0
  2290   00176A  6E2D               	movwf	Interrupt_INTx_Disable@ret^0,c
  2291                           
  2292                           ;MCAL_LAYER/INTERRUPT/mcal_External_Interrupt.c: 117:     }
  2293   00176C  EFE0  F00B         	goto	l2586
  2294   001770                     l511:
  2295   001770  98F2               	bcf	242,4,c	;volatile
  2296   001772  EFE0  F00B         	goto	l2586
  2297   001776                     l513:
  2298   001776  96F0               	bcf	240,3,c	;volatile
  2299   001778  EFE0  F00B         	goto	l2586
  2300   00177C                     l514:
  2301   00177C  98F0               	bcf	240,4,c	;volatile
  2302   00177E  EFE0  F00B         	goto	l2586
  2303   001782                     l2584:
  2304   001782  EE20 F001          	lfsr	2,1
  2305   001786  5029               	movf	Interrupt_INTx_Disable@Int_Obj^0,w,c
  2306   001788  26D9               	addwf	fsr2l,f,c
  2307   00178A  502A               	movf	(Interrupt_INTx_Disable@Int_Obj+1)^0,w,c
  2308   00178C  22DA               	addwfc	fsr2h,f,c
  2309   00178E  50DF               	movf	indf2,w,c
  2310   001790  6E2B               	movwf	??_Interrupt_INTx_Disable^0,c
  2311   001792  6A2C               	clrf	(??_Interrupt_INTx_Disable+1)^0,c
  2312                           
  2313                           ; Switch on 2 bytes has been partitioned into a top level switch of size 1, and 1 sub-sw
      +                          itches
  2314                           ; Switch size 1, requested type "simple"
  2315                           ; Number of cases is 1, Range of values is 0 to 0
  2316                           ; switch strategies available:
  2317                           ; Name         Instructions Cycles
  2318                           ; simple_byte            4     3 (average)
  2319                           ;	Chosen strategy is simple_byte
  2320   001794  502C               	movf	(??_Interrupt_INTx_Disable+1)^0,w,c
  2321   001796  0A00               	xorlw	0	; case 0
  2322   001798  B4D8               	btfsc	status,2,c
  2323   00179A  EFD1  F00B         	goto	l3092
  2324   00179E  EFB4  F00B         	goto	l2580
  2325   0017A2                     l3092:
  2326                           
  2327                           ; Switch size 1, requested type "simple"
  2328                           ; Number of cases is 3, Range of values is 0 to 2
  2329                           ; switch strategies available:
  2330                           ; Name         Instructions Cycles
  2331                           ; simple_byte           10     6 (average)
  2332                           ;	Chosen strategy is simple_byte
  2333   0017A2  502B               	movf	??_Interrupt_INTx_Disable^0,w,c
  2334   0017A4  0A00               	xorlw	0	; case 0
  2335   0017A6  B4D8               	btfsc	status,2,c
  2336   0017A8  EFB8  F00B         	goto	l511
  2337   0017AC  0A01               	xorlw	1	; case 1
  2338   0017AE  B4D8               	btfsc	status,2,c
  2339   0017B0  EFBB  F00B         	goto	l513
  2340   0017B4  0A03               	xorlw	3	; case 2
  2341   0017B6  B4D8               	btfsc	status,2,c
  2342   0017B8  EFBE  F00B         	goto	l514
  2343   0017BC  EFB4  F00B         	goto	l2580
  2344   0017C0                     l2586:
  2345                           
  2346                           ;MCAL_LAYER/INTERRUPT/mcal_External_Interrupt.c: 127:     return ret ;
  2347   0017C0  502D               	movf	Interrupt_INTx_Disable@ret^0,w,c
  2348   0017C2  0012               	return		;funcret
  2349   0017C4                     __end_of_Interrupt_INTx_Disable:
  2350                           	callstack 0
  2351                           
  2352 ;; *************** function _Interrupt_INTx_Clear_Flag *****************
  2353 ;; Defined at:
  2354 ;;		line 201 in file "MCAL_LAYER/INTERRUPT/mcal_External_Interrupt.c"
  2355 ;; Parameters:    Size  Location     Type
  2356 ;;  Int_Obj         2    2[COMRAM] PTR const struct .
  2357 ;;		 -> INT0_INTERRUPT(6), 
  2358 ;; Auto vars:     Size  Location     Type
  2359 ;;  ret             1    6[COMRAM] unsigned char 
  2360 ;; Return value:  Size  Location     Type
  2361 ;;                  1    wreg      unsigned char 
  2362 ;; Registers used:
  2363 ;;		wreg, fsr2l, fsr2h, status,2, status,0
  2364 ;; Tracked objects:
  2365 ;;		On entry : 0/0
  2366 ;;		On exit  : 0/0
  2367 ;;		Unchanged: 0/0
  2368 ;; Data sizes:     COMRAM   BANK0   BANK1   BANK2   BANK3   BANK4   BANK5   BANK6   BANK7   BANK8   BANK9  BANK10  BANK1
      +1  BANK12  BANK13  BANK14  BANK15
  2369 ;;      Params:         2       0       0       0       0       0       0       0       0       0       0       0       
      +0       0       0       0       0
  2370 ;;      Locals:         1       0       0       0       0       0       0       0       0       0       0       0       
      +0       0       0       0       0
  2371 ;;      Temps:          2       0       0       0       0       0       0       0       0       0       0       0       
      +0       0       0       0       0
  2372 ;;      Totals:         5       0       0       0       0       0       0       0       0       0       0       0       
      +0       0       0       0       0
  2373 ;;Total ram usage:        5 bytes
  2374 ;; Hardware stack levels used: 1
  2375 ;; Hardware stack levels required when called: 2
  2376 ;; This function calls:
  2377 ;;		Nothing
  2378 ;; This function is called by:
  2379 ;;		_Interrupt_INTx_Init
  2380 ;; This function uses a non-reentrant model
  2381 ;;
  2382                           
  2383                           	psect	text15
  2384   0017C4                     __ptext15:
  2385                           	callstack 0
  2386   0017C4                     _Interrupt_INTx_Clear_Flag:
  2387                           	callstack 27
  2388   0017C4                     
  2389                           ;MCAL_LAYER/INTERRUPT/mcal_External_Interrupt.c: 202:     Std_ReturnType ret = (Std_Retu
      +                          rnType)0x01 ;
  2390   0017C4  0E01               	movlw	1
  2391   0017C6  6E2D               	movwf	Interrupt_INTx_Clear_Flag@ret^0,c
  2392   0017C8                     
  2393                           ;MCAL_LAYER/INTERRUPT/mcal_External_Interrupt.c: 203:     if(((void*)0) == Int_Obj)
  2394   0017C8  5029               	movf	Interrupt_INTx_Clear_Flag@Int_Obj^0,w,c
  2395   0017CA  102A               	iorwf	(Interrupt_INTx_Clear_Flag@Int_Obj+1)^0,w,c
  2396   0017CC  A4D8               	btfss	status,2,c
  2397   0017CE  EFEB  F00B         	goto	u1341
  2398   0017D2  EFED  F00B         	goto	u1340
  2399   0017D6                     u1341:
  2400   0017D6  EFFA  F00B         	goto	l2602
  2401   0017DA                     u1340:
  2402   0017DA                     l2598:
  2403                           
  2404                           ;MCAL_LAYER/INTERRUPT/mcal_External_Interrupt.c: 204:     {;MCAL_LAYER/INTERRUPT/mcal_Ex
      +                          ternal_Interrupt.c: 205:         ret = (Std_ReturnType)0x00 ;
  2405   0017DA  0E00               	movlw	0
  2406   0017DC  6E2D               	movwf	Interrupt_INTx_Clear_Flag@ret^0,c
  2407                           
  2408                           ;MCAL_LAYER/INTERRUPT/mcal_External_Interrupt.c: 206:     }
  2409   0017DE  EF19  F00C         	goto	l2604
  2410   0017E2                     l573:
  2411   0017E2  92F2               	bcf	242,1,c	;volatile
  2412   0017E4  EF19  F00C         	goto	l2604
  2413   0017E8                     l575:
  2414   0017E8  90F0               	bcf	240,0,c	;volatile
  2415   0017EA  EF19  F00C         	goto	l2604
  2416   0017EE                     l576:
  2417   0017EE  92F0               	bcf	240,1,c	;volatile
  2418   0017F0  EF19  F00C         	goto	l2604
  2419   0017F4                     l2602:
  2420   0017F4  EE20 F001          	lfsr	2,1
  2421   0017F8  5029               	movf	Interrupt_INTx_Clear_Flag@Int_Obj^0,w,c
  2422   0017FA  26D9               	addwf	fsr2l,f,c
  2423   0017FC  502A               	movf	(Interrupt_INTx_Clear_Flag@Int_Obj+1)^0,w,c
  2424   0017FE  22DA               	addwfc	fsr2h,f,c
  2425   001800  50DF               	movf	indf2,w,c
  2426   001802  6E2B               	movwf	??_Interrupt_INTx_Clear_Flag^0,c
  2427   001804  6A2C               	clrf	(??_Interrupt_INTx_Clear_Flag+1)^0,c
  2428                           
  2429                           ; Switch on 2 bytes has been partitioned into a top level switch of size 1, and 1 sub-sw
      +                          itches
  2430                           ; Switch size 1, requested type "simple"
  2431                           ; Number of cases is 1, Range of values is 0 to 0
  2432                           ; switch strategies available:
  2433                           ; Name         Instructions Cycles
  2434                           ; simple_byte            4     3 (average)
  2435                           ;	Chosen strategy is simple_byte
  2436   001806  502C               	movf	(??_Interrupt_INTx_Clear_Flag+1)^0,w,c
  2437   001808  0A00               	xorlw	0	; case 0
  2438   00180A  B4D8               	btfsc	status,2,c
  2439   00180C  EF0A  F00C         	goto	l3094
  2440   001810  EFED  F00B         	goto	l2598
  2441   001814                     l3094:
  2442                           
  2443                           ; Switch size 1, requested type "simple"
  2444                           ; Number of cases is 3, Range of values is 0 to 2
  2445                           ; switch strategies available:
  2446                           ; Name         Instructions Cycles
  2447                           ; simple_byte           10     6 (average)
  2448                           ;	Chosen strategy is simple_byte
  2449   001814  502B               	movf	??_Interrupt_INTx_Clear_Flag^0,w,c
  2450   001816  0A00               	xorlw	0	; case 0
  2451   001818  B4D8               	btfsc	status,2,c
  2452   00181A  EFF1  F00B         	goto	l573
  2453   00181E  0A01               	xorlw	1	; case 1
  2454   001820  B4D8               	btfsc	status,2,c
  2455   001822  EFF4  F00B         	goto	l575
  2456   001826  0A03               	xorlw	3	; case 2
  2457   001828  B4D8               	btfsc	status,2,c
  2458   00182A  EFF7  F00B         	goto	l576
  2459   00182E  EFED  F00B         	goto	l2598
  2460   001832                     l2604:
  2461                           
  2462                           ;MCAL_LAYER/INTERRUPT/mcal_External_Interrupt.c: 216:     return ret ;
  2463   001832  502D               	movf	Interrupt_INTx_Clear_Flag@ret^0,w,c
  2464   001834  0012               	return		;funcret
  2465   001836                     __end_of_Interrupt_INTx_Clear_Flag:
  2466                           	callstack 0
  2467                           
  2468 ;; *************** function _InterruptMangerLow *****************
  2469 ;; Defined at:
  2470 ;;		line 20 in file "MCAL_LAYER/INTERRUPT/mcal_Interrupt_Manger.c"
  2471 ;; Parameters:    Size  Location     Type
  2472 ;;		None
  2473 ;; Auto vars:     Size  Location     Type
  2474 ;;		None
  2475 ;; Return value:  Size  Location     Type
  2476 ;;                  1    wreg      void 
  2477 ;; Registers used:
  2478 ;;		wreg
  2479 ;; Tracked objects:
  2480 ;;		On entry : 0/0
  2481 ;;		On exit  : 0/0
  2482 ;;		Unchanged: 0/0
  2483 ;; Data sizes:     COMRAM   BANK0   BANK1   BANK2   BANK3   BANK4   BANK5   BANK6   BANK7   BANK8   BANK9  BANK10  BANK1
      +1  BANK12  BANK13  BANK14  BANK15
  2484 ;;      Params:         0       0       0       0       0       0       0       0       0       0       0       0       
      +0       0       0       0       0
  2485 ;;      Locals:         0       0       0       0       0       0       0       0       0       0       0       0       
      +0       0       0       0       0
  2486 ;;      Temps:          2       0       0       0       0       0       0       0       0       0       0       0       
      +0       0       0       0       0
  2487 ;;      Totals:         2       0       0       0       0       0       0       0       0       0       0       0       
      +0       0       0       0       0
  2488 ;;Total ram usage:        2 bytes
  2489 ;; Hardware stack levels used: 1
  2490 ;; Hardware stack levels required when called: 1
  2491 ;; This function calls:
  2492 ;;		Nothing
  2493 ;; This function is called by:
  2494 ;;		Interrupt level 1
  2495 ;; This function uses a non-reentrant model
  2496 ;;
  2497                           
  2498                           	psect	intcodelo
  2499   000018                     __pintcodelo:
  2500                           	callstack 0
  2501   000018                     _InterruptMangerLow:
  2502                           	callstack 26
  2503                           
  2504                           ;incstack = 0
  2505   000018  8049               	bsf	int$flags,0,c	;set compiler interrupt flag (level 1)
  2506   00001A  CFE8 F027          	movff	wreg,??_InterruptMangerLow
  2507   00001E  CFE0 F028          	movff	bsr,??_InterruptMangerLow+1
  2508   000022                     
  2509                           ;MCAL_LAYER/INTERRUPT/mcal_Interrupt_Manger.c: 21:     if(INTCON3bits.INT2E == 0x01 && I
      +                          NTCON3bits.INT2F == 0x01){
  2510   000022  A8F0               	btfss	240,4,c	;volatile
  2511   000024  EF16  F000         	goto	i1u118_21
  2512   000028  EF18  F000         	goto	i1u118_20
  2513   00002C                     i1u118_21:
  2514   00002C  EF19  F000         	goto	i1l636
  2515   000030                     i1u118_20:
  2516   000030  50F0               	movf	240,w,c	;volatile
  2517   000032                     i1l636:
  2518   000032  C028  FFE0         	movff	??_InterruptMangerLow+1,bsr
  2519   000036  C027  FFE8         	movff	??_InterruptMangerLow,wreg
  2520   00003A  9049               	bcf	int$flags,0,c	;clear compiler interrupt flag (level 1)
  2521   00003C  0010               	retfie	
  2522   00003E                     __end_of_InterruptMangerLow:
  2523                           	callstack 0
  2524                           
  2525 ;; *************** function _InterruptMangerHigh *****************
  2526 ;; Defined at:
  2527 ;;		line 6 in file "MCAL_LAYER/INTERRUPT/mcal_Interrupt_Manger.c"
  2528 ;; Parameters:    Size  Location     Type
  2529 ;;		None
  2530 ;; Auto vars:     Size  Location     Type
  2531 ;;		None
  2532 ;; Return value:  Size  Location     Type
  2533 ;;                  1    wreg      void 
  2534 ;; Registers used:
  2535 ;;		wreg
  2536 ;; Tracked objects:
  2537 ;;		On entry : 0/0
  2538 ;;		On exit  : 0/0
  2539 ;;		Unchanged: 0/0
  2540 ;; Data sizes:     COMRAM   BANK0   BANK1   BANK2   BANK3   BANK4   BANK5   BANK6   BANK7   BANK8   BANK9  BANK10  BANK1
      +1  BANK12  BANK13  BANK14  BANK15
  2541 ;;      Params:         0       0       0       0       0       0       0       0       0       0       0       0       
      +0       0       0       0       0
  2542 ;;      Locals:         0       0       0       0       0       0       0       0       0       0       0       0       
      +0       0       0       0       0
  2543 ;;      Temps:          0       0       0       0       0       0       0       0       0       0       0       0       
      +0       0       0       0       0
  2544 ;;      Totals:         0       0       0       0       0       0       0       0       0       0       0       0       
      +0       0       0       0       0
  2545 ;;Total ram usage:        0 bytes
  2546 ;; Hardware stack levels used: 1
  2547 ;; This function calls:
  2548 ;;		Nothing
  2549 ;; This function is called by:
  2550 ;;		Interrupt level 2
  2551 ;; This function uses a non-reentrant model
  2552 ;;
  2553                           
  2554                           	psect	intcode
  2555   000008                     __pintcode:
  2556                           	callstack 0
  2557   000008                     _InterruptMangerHigh:
  2558                           	callstack 26
  2559                           
  2560                           ;incstack = 0
  2561   000008  8249               	bsf	int$flags,1,c	;set compiler interrupt flag (level 2)
  2562   00000A  EDD8  F00C         	call	int_func,f	;refresh shadow registers
  2563                           
  2564                           	psect	intcode_body
  2565   0019B0                     __pintcode_body:
  2566                           	callstack 26
  2567   0019B0                     int_func:
  2568                           	callstack 26
  2569   0019B0  0006               	pop		; remove dummy address from shadow register refresh
  2570   0019B2                     
  2571                           ;MCAL_LAYER/INTERRUPT/mcal_Interrupt_Manger.c: 7:     if(INTCONbits.INT0E == 0x01 && INT
      +                          CONbits.INT0F == 0x01){
  2572   0019B2  A8F2               	btfss	242,4,c	;volatile
  2573   0019B4  EFDE  F00C         	goto	i2u116_41
  2574   0019B8  EFE0  F00C         	goto	i2u116_40
  2575   0019BC                     i2u116_41:
  2576   0019BC  EFE1  F00C         	goto	i2l626
  2577   0019C0                     i2u116_40:
  2578   0019C0  50F2               	movf	242,w,c	;volatile
  2579   0019C2                     i2l626:
  2580                           
  2581                           ;MCAL_LAYER/INTERRUPT/mcal_Interrupt_Manger.c: 13:     if(INTCON3bits.INT1E == 0x01 && I
      +                          NTCON3bits.INT1F == 0x01){
  2582   0019C2  A6F0               	btfss	240,3,c	;volatile
  2583   0019C4  EFE6  F00C         	goto	i2u117_41
  2584   0019C8  EFE8  F00C         	goto	i2u117_40
  2585   0019CC                     i2u117_41:
  2586   0019CC  EFE9  F00C         	goto	i2l629
  2587   0019D0                     i2u117_40:
  2588   0019D0  50F0               	movf	240,w,c	;volatile
  2589   0019D2                     i2l629:
  2590   0019D2  9249               	bcf	int$flags,1,c	;clear compiler interrupt flag (level 2)
  2591   0019D4  0011               	retfie		f
  2592   0019D6                     __end_of_InterruptMangerHigh:
  2593                           	callstack 0
  2594                           
  2595                           	psect	rparam
  2596   000000                     
  2597                           	psect	temp
  2598   000049                     btemp:
  2599                           	callstack 0
  2600   000049                     	ds	1
  2601   000000                     int$flags	set	btemp
  2602   000000                     wtemp8	set	btemp+1
  2603   000000                     ttemp5	set	btemp+1
  2604   000000                     ttemp6	set	btemp+4
  2605   000000                     ttemp7	set	btemp+8
  2606                           
  2607                           	psect	idloc
  2608                           
  2609                           ;Config register IDLOC0 @ 0x200000
  2610                           ;	unspecified, using default values
  2611   200000                     	org	2097152
  2612   200000  FF                 	db	255
  2613                           
  2614                           ;Config register IDLOC1 @ 0x200001
  2615                           ;	unspecified, using default values
  2616   200001                     	org	2097153
  2617   200001  FF                 	db	255
  2618                           
  2619                           ;Config register IDLOC2 @ 0x200002
  2620                           ;	unspecified, using default values
  2621   200002                     	org	2097154
  2622   200002  FF                 	db	255
  2623                           
  2624                           ;Config register IDLOC3 @ 0x200003
  2625                           ;	unspecified, using default values
  2626   200003                     	org	2097155
  2627   200003  FF                 	db	255
  2628                           
  2629                           ;Config register IDLOC4 @ 0x200004
  2630                           ;	unspecified, using default values
  2631   200004                     	org	2097156
  2632   200004  FF                 	db	255
  2633                           
  2634                           ;Config register IDLOC5 @ 0x200005
  2635                           ;	unspecified, using default values
  2636   200005                     	org	2097157
  2637   200005  FF                 	db	255
  2638                           
  2639                           ;Config register IDLOC6 @ 0x200006
  2640                           ;	unspecified, using default values
  2641   200006                     	org	2097158
  2642   200006  FF                 	db	255
  2643                           
  2644                           ;Config register IDLOC7 @ 0x200007
  2645                           ;	unspecified, using default values
  2646   200007                     	org	2097159
  2647   200007  FF                 	db	255
  2648                           
  2649                           	psect	config
  2650                           
  2651                           ; Padding undefined space
  2652   300000                     	org	3145728
  2653   300000  FF                 	db	255
  2654                           
  2655                           ;Config register CONFIG1H @ 0x300001
  2656                           ;	Oscillator Selection bits
  2657                           ;	OSC = HS, HS oscillator
  2658                           ;	Fail-Safe Clock Monitor Enable bit
  2659                           ;	FCMEN = OFF, Fail-Safe Clock Monitor disabled
  2660                           ;	Internal/External Oscillator Switchover bit
  2661                           ;	IESO = OFF, Oscillator Switchover mode disabled
  2662   300001                     	org	3145729
  2663   300001  02                 	db	2
  2664                           
  2665                           ;Config register CONFIG2L @ 0x300002
  2666                           ;	Power-up Timer Enable bit
  2667                           ;	PWRT = OFF, PWRT disabled
  2668                           ;	Brown-out Reset Enable bits
  2669                           ;	BOREN = OFF, Brown-out Reset disabled in hardware and software
  2670                           ;	Brown Out Reset Voltage bits
  2671                           ;	BORV = 1, 
  2672   300002                     	org	3145730
  2673   300002  09                 	db	9
  2674                           
  2675                           ;Config register CONFIG2H @ 0x300003
  2676                           ;	Watchdog Timer Enable bit
  2677                           ;	WDT = OFF, WDT disabled (control is placed on the SWDTEN bit)
  2678                           ;	Watchdog Timer Postscale Select bits
  2679                           ;	WDTPS = 32768, 1:32768
  2680   300003                     	org	3145731
  2681   300003  1E                 	db	30
  2682                           
  2683                           ; Padding undefined space
  2684   300004                     	org	3145732
  2685   300004  FF                 	db	255
  2686                           
  2687                           ;Config register CONFIG3H @ 0x300005
  2688                           ;	CCP2 MUX bit
  2689                           ;	CCP2MX = PORTC, CCP2 input/output is multiplexed with RC1
  2690                           ;	PORTB A/D Enable bit
  2691                           ;	PBADEN = OFF, PORTB<4:0> pins are configured as digital I/O on Reset
  2692                           ;	Low-Power Timer1 Oscillator Enable bit
  2693                           ;	LPT1OSC = OFF, Timer1 configured for higher power operation
  2694                           ;	MCLR Pin Enable bit
  2695                           ;	MCLRE = ON, MCLR pin enabled; RE3 input pin disabled
  2696   300005                     	org	3145733
  2697   300005  81                 	db	129
  2698                           
  2699                           ;Config register CONFIG4L @ 0x300006
  2700                           ;	Stack Full/Underflow Reset Enable bit
  2701                           ;	STVREN = ON, Stack full/underflow will cause Reset
  2702                           ;	Single-Supply ICSP Enable bit
  2703                           ;	LVP = OFF, Single-Supply ICSP disabled
  2704                           ;	Extended Instruction Set Enable bit
  2705                           ;	XINST = OFF, Instruction set extension and Indexed Addressing mode disabled (Legacy mo
      +                          de)
  2706                           ;	Background Debugger Enable bit
  2707                           ;	DEBUG = 0x1, unprogrammed default
  2708   300006                     	org	3145734
  2709   300006  81                 	db	129
  2710                           
  2711                           ; Padding undefined space
  2712   300007                     	org	3145735
  2713   300007  FF                 	db	255
  2714                           
  2715                           ;Config register CONFIG5L @ 0x300008
  2716                           ;	Code Protection bit
  2717                           ;	CP0 = OFF, Block 0 (000800-003FFFh) not code-protected
  2718                           ;	Code Protection bit
  2719                           ;	CP1 = OFF, Block 1 (004000-007FFFh) not code-protected
  2720                           ;	Code Protection bit
  2721                           ;	CP2 = OFF, Block 2 (008000-00BFFFh) not code-protected
  2722                           ;	Code Protection bit
  2723                           ;	CP3 = OFF, Block 3 (00C000-00FFFFh) not code-protected
  2724   300008                     	org	3145736
  2725   300008  0F                 	db	15
  2726                           
  2727                           ;Config register CONFIG5H @ 0x300009
  2728                           ;	Boot Block Code Protection bit
  2729                           ;	CPB = OFF, Boot block (000000-0007FFh) not code-protected
  2730                           ;	Data EEPROM Code Protection bit
  2731                           ;	CPD = OFF, Data EEPROM not code-protected
  2732   300009                     	org	3145737
  2733   300009  C0                 	db	192
  2734                           
  2735                           ;Config register CONFIG6L @ 0x30000A
  2736                           ;	Write Protection bit
  2737                           ;	WRT0 = OFF, Block 0 (000800-003FFFh) not write-protected
  2738                           ;	Write Protection bit
  2739                           ;	WRT1 = OFF, Block 1 (004000-007FFFh) not write-protected
  2740                           ;	Write Protection bit
  2741                           ;	WRT2 = OFF, Block 2 (008000-00BFFFh) not write-protected
  2742                           ;	Write Protection bit
  2743                           ;	WRT3 = OFF, Block 3 (00C000-00FFFFh) not write-protected
  2744   30000A                     	org	3145738
  2745   30000A  0F                 	db	15
  2746                           
  2747                           ;Config register CONFIG6H @ 0x30000B
  2748                           ;	Configuration Register Write Protection bit
  2749                           ;	WRTC = OFF, Configuration registers (300000-3000FFh) not write-protected
  2750                           ;	Boot Block Write Protection bit
  2751                           ;	WRTB = OFF, Boot Block (000000-0007FFh) not write-protected
  2752                           ;	Data EEPROM Write Protection bit
  2753                           ;	WRTD = OFF, Data EEPROM not write-protected
  2754   30000B                     	org	3145739
  2755   30000B  E0                 	db	224
  2756                           
  2757                           ;Config register CONFIG7L @ 0x30000C
  2758                           ;	Table Read Protection bit
  2759                           ;	EBTR0 = OFF, Block 0 (000800-003FFFh) not protected from table reads executed in other
      +                           blocks
  2760                           ;	Table Read Protection bit
  2761                           ;	EBTR1 = OFF, Block 1 (004000-007FFFh) not protected from table reads executed in other
      +                           blocks
  2762                           ;	Table Read Protection bit
  2763                           ;	EBTR2 = OFF, Block 2 (008000-00BFFFh) not protected from table reads executed in other
      +                           blocks
  2764                           ;	Table Read Protection bit
  2765                           ;	EBTR3 = OFF, Block 3 (00C000-00FFFFh) not protected from table reads executed in other
      +                           blocks
  2766   30000C                     	org	3145740
  2767   30000C  0F                 	db	15
  2768                           
  2769                           ;Config register CONFIG7H @ 0x30000D
  2770                           ;	Boot Block Table Read Protection bit
  2771                           ;	EBTRB = OFF, Boot Block (000000-0007FFh) not protected from table reads executed in ot
      +                          her blocks
  2772   30000D                     	org	3145741
  2773   30000D  40                 	db	64
  2774                           tosu	equ	0xFFF
  2775                           tosh	equ	0xFFE
  2776                           tosl	equ	0xFFD
  2777                           stkptr	equ	0xFFC
  2778                           pclatu	equ	0xFFB
  2779                           pclath	equ	0xFFA
  2780                           pcl	equ	0xFF9
  2781                           tblptru	equ	0xFF8
  2782                           tblptrh	equ	0xFF7
  2783                           tblptrl	equ	0xFF6
  2784                           tablat	equ	0xFF5
  2785                           prodh	equ	0xFF4
  2786                           prodl	equ	0xFF3
  2787                           indf0	equ	0xFEF
  2788                           postinc0	equ	0xFEE
  2789                           postdec0	equ	0xFED
  2790                           preinc0	equ	0xFEC
  2791                           plusw0	equ	0xFEB
  2792                           fsr0h	equ	0xFEA
  2793                           fsr0l	equ	0xFE9
  2794                           wreg	equ	0xFE8
  2795                           indf1	equ	0xFE7
  2796                           postinc1	equ	0xFE6
  2797                           postdec1	equ	0xFE5
  2798                           preinc1	equ	0xFE4
  2799                           plusw1	equ	0xFE3
  2800                           fsr1h	equ	0xFE2
  2801                           fsr1l	equ	0xFE1
  2802                           bsr	equ	0xFE0
  2803                           indf2	equ	0xFDF
  2804                           postinc2	equ	0xFDE
  2805                           postdec2	equ	0xFDD
  2806                           preinc2	equ	0xFDC
  2807                           plusw2	equ	0xFDB
  2808                           fsr2h	equ	0xFDA
  2809                           fsr2l	equ	0xFD9
  2810                           status	equ	0xFD8

Data Sizes:
    Strings     0
    Constant    16
    Data        38
    BSS         15
    Persistent  0
    Stack       0

Auto Spaces:
    Space          Size  Autos    Used
    COMRAM          126     19      72
    BANK0           128      0       0
    BANK1           256      0       0
    BANK2           256      0       0
    BANK3           256      0       0
    BANK4           256      0       0
    BANK5           256      0       0
    BANK6           256      0       0
    BANK7           256      0       0
    BANK8           256      0       0
    BANK9           256      0       0
    BANK10          256      0       0
    BANK11          256      0       0
    BANK12          256      0       0
    BANK13          256      0       0
    BANK14          256      0       0
    BANK15          128      0       0

Pointer List with Targets:

    Set_INTx_Interrupt_Handller@Int_Obj.EX_Int_Handler	PTR FTN()void  size(2) Largest target is 1
		 -> ISR_BUTTON_INT0(), 

    Set_INTx_Interrupt_Handller@Int_Obj	PTR const struct . size(2) Largest target is 6
		 -> INT0_INTERRUPT(COMRAM[6]), 

    Int2_Interrupt_Handller	PTR FTN()void  size(2) Largest target is 6
		 -> Absolute function(), INT0_INTERRUPT(COMRAM[6]), INT0_INTERRUPT.EX_Int_Handler(COMRAM[2]), 

    Set_INT2_Interrupt_Handller@Int_Interrupt_Handller	PTR FTN()void  size(2) Largest target is 6
		 -> INT0_INTERRUPT(COMRAM[6]), INT0_INTERRUPT.EX_Int_Handler(COMRAM[2]), 

    Int1_Interrupt_Handller	PTR FTN()void  size(2) Largest target is 6
		 -> Absolute function(), INT0_INTERRUPT(COMRAM[6]), INT0_INTERRUPT.EX_Int_Handler(COMRAM[2]), 

    Set_INT1_Interrupt_Handller@Int_Interrupt_Handller	PTR FTN()void  size(2) Largest target is 6
		 -> INT0_INTERRUPT(COMRAM[6]), INT0_INTERRUPT.EX_Int_Handler(COMRAM[2]), 

    Int0_Interrupt_Handller	PTR FTN()void  size(2) Largest target is 6
		 -> Absolute function(), INT0_INTERRUPT(COMRAM[6]), INT0_INTERRUPT.EX_Int_Handler(COMRAM[2]), 

    Set_INT0_Interrupt_Handller@Int_Interrupt_Handller	PTR FTN()void  size(2) Largest target is 6
		 -> INT0_INTERRUPT(COMRAM[6]), INT0_INTERRUPT.EX_Int_Handler(COMRAM[2]), 

    Interrupt_INTx_Clear_Flag@Int_Obj.EX_Int_Handler	PTR FTN()void  size(2) Largest target is 1
		 -> ISR_BUTTON_INT0(), 

    Interrupt_INTx_Clear_Flag@Int_Obj	PTR const struct . size(2) Largest target is 6
		 -> INT0_INTERRUPT(COMRAM[6]), 

    Interrupt_INTx_Pin_Init@Int_Obj.EX_Int_Handler	PTR FTN()void  size(2) Largest target is 1
		 -> ISR_BUTTON_INT0(), 

    Interrupt_INTx_Pin_Init@Int_Obj	PTR const struct . size(2) Largest target is 6
		 -> INT0_INTERRUPT(COMRAM[6]), 

    Interrupt_INTx_Edge_Init@Int_Obj.EX_Int_Handler	PTR FTN()void  size(2) Largest target is 1
		 -> ISR_BUTTON_INT0(), 

    Interrupt_INTx_Edge_Init@Int_Obj	PTR const struct . size(2) Largest target is 6
		 -> INT0_INTERRUPT(COMRAM[6]), 

    Interrupt_INTx_Priority_Init@Int_Obj.EX_Int_Handler	PTR FTN()void  size(2) Largest target is 1
		 -> ISR_BUTTON_INT0(), 

    Interrupt_INTx_Priority_Init@Int_Obj	PTR const struct . size(2) Largest target is 6
		 -> INT0_INTERRUPT(COMRAM[6]), 

    Interrupt_INTx_Disable@Int_Obj.EX_Int_Handler	PTR FTN()void  size(2) Largest target is 1
		 -> ISR_BUTTON_INT0(), 

    Interrupt_INTx_Disable@Int_Obj	PTR const struct . size(2) Largest target is 6
		 -> INT0_INTERRUPT(COMRAM[6]), 

    Interrupt_INTx_Enable@Int_Obj.EX_Int_Handler	PTR FTN()void  size(2) Largest target is 1
		 -> ISR_BUTTON_INT0(), 

    Interrupt_INTx_Enable@Int_Obj	PTR const struct . size(2) Largest target is 6
		 -> INT0_INTERRUPT(COMRAM[6]), 

    Interrupt_INTx_Init@Int_Obj	PTR const struct . size(2) Largest target is 6
		 -> INT0_INTERRUPT(COMRAM[6]), 

    S693$EX_Int_Handler	PTR FTN()void  size(2) Largest target is 1
		 -> ISR_BUTTON_INT0(), 

    INT0_INTERRUPT.EX_Int_Handler	PTR FTN()void  size(2) Largest target is 1
		 -> ISR_BUTTON_INT0(), 

    gpio_pin_toggle_logic@_pin_config	PTR const struct . size(2) Largest target is 1
		 -> led_toggle_state@Pin_obj(COMRAM[1]), 

    gpio_pin_direction_init@_pin_config	PTR const struct . size(2) Largest target is 6
		 -> INT0_INTERRUPT(COMRAM[6]), Relay_init@rel(COMRAM[1]), led_init@Pin_obj(COMRAM[1]), pin2(COMRAM[1]), 
		 -> pin1(COMRAM[1]), 

    lat_registers	PTR volatile unsigned char [5] size(2) Largest target is 1
		 -> LATE(BITBIGSFRllh[1]), LATD(BITBIGSFRllh[1]), LATC(BITBIGSFRllh[1]), LATB(BITBIGSFRllh[1]), 
		 -> LATA(BITBIGSFRlll[1]), 

    port_registers	PTR volatile unsigned char [5] size(2) Largest target is 1
		 -> PORTE(BITBIGSFRlll[1]), PORTD(BITBIGSFRlll[1]), PORTC(BITBIGSFRlll[1]), PORTB(BITBIGSFRlll[1]), 
		 -> PORTA(BITBIGSFRlll[1]), 

    tris_registers	PTR volatile unsigned char [5] size(2) Largest target is 1
		 -> TRISE(BITBIGSFRlhl[1]), TRISD(BITBIGSFRlhl[1]), TRISC(BITBIGSFRlhl[1]), TRISB(BITBIGSFRlhl[1]), 
		 -> TRISA(BITBIGSFRlll[1]), 

    led_toggle_state@led	PTR const struct . size(2) Largest target is 1
		 -> led1(COMRAM[1]), led2(COMRAM[1]), 

    led_init@led	PTR const struct . size(2) Largest target is 1
		 -> led1(COMRAM[1]), led2(COMRAM[1]), 


Critical Paths under _main in COMRAM

    _main->_Interrupt_INTx_Init
    _led_toggle_state->_gpio_pin_toggle_logic
    _led_init->_gpio_pin_direction_init
    _Interrupt_INTx_Init->_Interrupt_INTx_Pin_Init
    _Set_INTx_Interrupt_Handller->_Set_INT0_Interrupt_Handller
    _Set_INTx_Interrupt_Handller->_Set_INT1_Interrupt_Handller
    _Set_INTx_Interrupt_Handller->_Set_INT2_Interrupt_Handller
    _Interrupt_INTx_Pin_Init->_gpio_pin_direction_init

Critical Paths under _InterruptMangerLow in COMRAM

    None.

Critical Paths under _InterruptMangerHigh in COMRAM

    None.

Critical Paths under _main in BANK0

    None.

Critical Paths under _InterruptMangerLow in BANK0

    None.

Critical Paths under _InterruptMangerHigh in BANK0

    None.

Critical Paths under _main in BANK1

    None.

Critical Paths under _InterruptMangerLow in BANK1

    None.

Critical Paths under _InterruptMangerHigh in BANK1

    None.

Critical Paths under _main in BANK2

    None.

Critical Paths under _InterruptMangerLow in BANK2

    None.

Critical Paths under _InterruptMangerHigh in BANK2

    None.

Critical Paths under _main in BANK3

    None.

Critical Paths under _InterruptMangerLow in BANK3

    None.

Critical Paths under _InterruptMangerHigh in BANK3

    None.

Critical Paths under _main in BANK4

    None.

Critical Paths under _InterruptMangerLow in BANK4

    None.

Critical Paths under _InterruptMangerHigh in BANK4

    None.

Critical Paths under _main in BANK5

    None.

Critical Paths under _InterruptMangerLow in BANK5

    None.

Critical Paths under _InterruptMangerHigh in BANK5

    None.

Critical Paths under _main in BANK6

    None.

Critical Paths under _InterruptMangerLow in BANK6

    None.

Critical Paths under _InterruptMangerHigh in BANK6

    None.

Critical Paths under _main in BANK7

    None.

Critical Paths under _InterruptMangerLow in BANK7

    None.

Critical Paths under _InterruptMangerHigh in BANK7

    None.

Critical Paths under _main in BANK8

    None.

Critical Paths under _InterruptMangerLow in BANK8

    None.

Critical Paths under _InterruptMangerHigh in BANK8

    None.

Critical Paths under _main in BANK9

    None.

Critical Paths under _InterruptMangerLow in BANK9

    None.

Critical Paths under _InterruptMangerHigh in BANK9

    None.

Critical Paths under _main in BANK10

    None.

Critical Paths under _InterruptMangerLow in BANK10

    None.

Critical Paths under _InterruptMangerHigh in BANK10

    None.

Critical Paths under _main in BANK11

    None.

Critical Paths under _InterruptMangerLow in BANK11

    None.

Critical Paths under _InterruptMangerHigh in BANK11

    None.

Critical Paths under _main in BANK12

    None.

Critical Paths under _InterruptMangerLow in BANK12

    None.

Critical Paths under _InterruptMangerHigh in BANK12

    None.

Critical Paths under _main in BANK13

    None.

Critical Paths under _InterruptMangerLow in BANK13

    None.

Critical Paths under _InterruptMangerHigh in BANK13

    None.

Critical Paths under _main in BANK14

    None.

Critical Paths under _InterruptMangerLow in BANK14

    None.

Critical Paths under _InterruptMangerHigh in BANK14

    None.

Critical Paths under _main in BANK15

    None.

Critical Paths under _InterruptMangerLow in BANK15

    None.

Critical Paths under _InterruptMangerHigh in BANK15

    None.

Call Graph Tables:

 ---------------------------------------------------------------------------------
 (Depth) Function   	        Calls       Base Space   Used Autos Params    Refs
 ---------------------------------------------------------------------------------
 (0) _main                                                 3     3      0    4512
                                             17 COMRAM     2     2      0
                _Interrupt_INTx_Init
                           _led_init
                   _led_toggle_state
 ---------------------------------------------------------------------------------
 (1) _led_toggle_state                                     5     3      2     628
                                             10 COMRAM     5     3      2
              _gpio_pin_toggle_logic
 ---------------------------------------------------------------------------------
 (2) _gpio_pin_toggle_logic                                8     6      2     211
                                              2 COMRAM     8     6      2
 ---------------------------------------------------------------------------------
 (1) _led_init                                             5     3      2    1154
                                             11 COMRAM     5     3      2
            _gpio_pin_direction_init
 ---------------------------------------------------------------------------------
 (1) _Interrupt_INTx_Init                                  3     1      2    2724
                                             14 COMRAM     3     1      2
          _Interrupt_INTx_Clear_Flag
             _Interrupt_INTx_Disable
           _Interrupt_INTx_Edge_Init
              _Interrupt_INTx_Enable
            _Interrupt_INTx_Pin_Init
       _Interrupt_INTx_Priority_Init
        _Set_INTx_Interrupt_Handller
 ---------------------------------------------------------------------------------
 (2) _Set_INTx_Interrupt_Handller                          5     3      2     646
                                              5 COMRAM     5     3      2
        _Set_INT0_Interrupt_Handller
        _Set_INT1_Interrupt_Handller
        _Set_INT2_Interrupt_Handller
 ---------------------------------------------------------------------------------
 (3) _Set_INT2_Interrupt_Handller                          3     1      2     144
                                              2 COMRAM     3     1      2
 ---------------------------------------------------------------------------------
 (3) _Set_INT1_Interrupt_Handller                          3     1      2     144
                                              2 COMRAM     3     1      2
 ---------------------------------------------------------------------------------
 (3) _Set_INT0_Interrupt_Handller                          3     1      2     144
                                              2 COMRAM     3     1      2
 ---------------------------------------------------------------------------------
 (2) _Interrupt_INTx_Priority_Init                         5     3      2     191
                                              2 COMRAM     4     2      2
 ---------------------------------------------------------------------------------
 (2) _Interrupt_INTx_Pin_Init                              3     1      2     955
                                             11 COMRAM     3     1      2
            _gpio_pin_direction_init
 ---------------------------------------------------------------------------------
 (2) _gpio_pin_direction_init                              9     7      2     810
                                              2 COMRAM     9     7      2
 ---------------------------------------------------------------------------------
 (2) _Interrupt_INTx_Enable                                5     3      2     145
                                              2 COMRAM     5     3      2
 ---------------------------------------------------------------------------------
 (2) _Interrupt_INTx_Edge_Init                             5     3      2     214
                                              2 COMRAM     4     2      2
 ---------------------------------------------------------------------------------
 (2) _Interrupt_INTx_Disable                               5     3      2     145
                                              2 COMRAM     5     3      2
 ---------------------------------------------------------------------------------
 (2) _Interrupt_INTx_Clear_Flag                            5     3      2     145
                                              2 COMRAM     5     3      2
 ---------------------------------------------------------------------------------
 Estimated maximum stack depth 3
 ---------------------------------------------------------------------------------
 (Depth) Function   	        Calls       Base Space   Used Autos Params    Refs
 ---------------------------------------------------------------------------------
 (4) _InterruptMangerLow                                   2     2      0       0
                                              0 COMRAM     2     2      0
 ---------------------------------------------------------------------------------
 Estimated maximum stack depth 4
 ---------------------------------------------------------------------------------
 (Depth) Function   	        Calls       Base Space   Used Autos Params    Refs
 ---------------------------------------------------------------------------------
 (5) _InterruptMangerHigh                                  0     0      0       0
 ---------------------------------------------------------------------------------
 Estimated maximum stack depth 5
 ---------------------------------------------------------------------------------

 Call Graph Graphs:

 _main (ROOT)
   _Interrupt_INTx_Init
     _Interrupt_INTx_Clear_Flag
     _Interrupt_INTx_Disable
     _Interrupt_INTx_Edge_Init
     _Interrupt_INTx_Enable
     _Interrupt_INTx_Pin_Init
       _gpio_pin_direction_init
     _Interrupt_INTx_Priority_Init
     _Set_INTx_Interrupt_Handller
       _Set_INT0_Interrupt_Handller
       _Set_INT1_Interrupt_Handller
       _Set_INT2_Interrupt_Handller
   _led_init
     _gpio_pin_direction_init
   _led_toggle_state
     _gpio_pin_toggle_logic

 _InterruptMangerLow (ROOT)

 _InterruptMangerHigh (ROOT)

 Address spaces:
Name               Size   Autos  Total    Cost      Usage
BIGRAM             F7F      0       0      43        0.0%
EEDATA             400      0       0       0        0.0%
BITBANK14          100      0       0      32        0.0%
BANK14             100      0       0      33        0.0%
BITBANK13          100      0       0      30        0.0%
BANK13             100      0       0      31        0.0%
BITBANK12          100      0       0      28        0.0%
BANK12             100      0       0      29        0.0%
BITBANK11          100      0       0      26        0.0%
BANK11             100      0       0      27        0.0%
BITBANK10          100      0       0      24        0.0%
BANK10             100      0       0      25        0.0%
BITBANK9           100      0       0      22        0.0%
BANK9              100      0       0      23        0.0%
BITBANK8           100      0       0      20        0.0%
BANK8              100      0       0      21        0.0%
BITBANK7           100      0       0      18        0.0%
BANK7              100      0       0      19        0.0%
BITBANK6           100      0       0      16        0.0%
BANK6              100      0       0      17        0.0%
BITBANK5           100      0       0      14        0.0%
BANK5              100      0       0      15        0.0%
BITBANK4           100      0       0      12        0.0%
BANK4              100      0       0      13        0.0%
BITBANK3           100      0       0      10        0.0%
BANK3              100      0       0      11        0.0%
BITBANK2           100      0       0       8        0.0%
BANK2              100      0       0       9        0.0%
BITBANK1           100      0       0       6        0.0%
BANK1              100      0       0       7        0.0%
BITBANK15           80      0       0      34        0.0%
BANK15              80      0       0      35        0.0%
BITBANK0            80      0       0       4        0.0%
BANK0               80      0       0       5        0.0%
BITCOMRAM           7E      0       0       0        0.0%
COMRAM              7E     13      48       1       57.1%
BITBIGSFRlhl        39      0       0      39        0.0%
BITBIGSFRhll        17      0       0      37        0.0%
BITBIGSFRhh          D      0       0      36        0.0%
BITBIGSFRlhh         7      0       0      38        0.0%
BITBIGSFRllh         4      0       0      40        0.0%
BITBIGSFRlll         4      0       0      41        0.0%
BIGSFR               0      0       0     200        0.0%
BITSFR               0      0       0     200        0.0%
SFR                  0      0       0     200        0.0%
STACK                0      0       0       2        0.0%
NULL                 0      0       0       0        0.0%
ABS                  0      0      48      42        0.0%
DATA                 0      0      48       3        0.0%
CODE                 0      0       0       0        0.0%


Microchip Technology PIC18 Macro Assembler V2.40 build 20220703182018 
Symbol Table                                                                                   Thu Apr 06 11:23:19 2023

                             ??_InterruptMangerLow 0027                                                 bsr 000FE0  
                            ??_InterruptMangerHigh 0027                                                l220 14F8  
                                              l214 1496                                                l500 1674  
                                              l253 1436                                                l502 1680  
                                              l511 1770                                                l503 168C  
                                              l351 1176                                                l247 13D4  
                                              l513 1776                                                l505 16D8  
                                              l514 177C                                                l530 12F6  
                                              l516 17C2                                                l532 12FC  
                                              l524 12B0                                                l604 1654  
                                              l550 11D0                                                l526 12B6  
                                              l552 11D6                                                l544 118E  
                                              l536 1374                                                l562 1298  
                                              l546 1194                                                l556 1212  
                                              l396 15B6                                                l573 17E2  
                                              l558 1218                                                l494 1750  
                                              l575 17E8                                                l567 190A  
                                              l583 1988                                                l576 17EE  
                                              l593 1934                                                l578 1834  
                                              l588 195E                            _Int1_Interrupt_Handller 003C  
                                              prod 000FF3                                                wreg 000FE8  
              __end_of_Set_INT2_Interrupt_Handller 1936                        _Set_INT2_Interrupt_Handller 190C  
                                             l3010 1836                                               l3020 187C  
                                             l3012 1842                                               l3022 1888  
                                             l3014 184E                                               l3016 185A  
                                             l3008 1836                                               l3018 1866  
                                             l2500 1030                                               l2502 1052  
                                             l3080 115E                                               l2512 1132  
                                             l3072 1634                                               l2602 17F4  
                                             l3090 1278                                               l3082 16B8  
                                             l2506 1074                                               l2514 1174  
                                             l3074 12E0                                               l2530 1986  
                                             l2522 1960                                               l2604 1832  
                                             l3092 17A2                                               l3084 11BA  
                                             l2508 10D6                                               l2620 1908  
                                             l2612 18DC                                               l3076 1326  
                                             l2524 1964                                               l2540 1954  
                                             l2700 15B8                                               l3094 1814  
                                             l3086 11FC                                               l2614 18DC  
                                             l3078 135C                                               l2630 12BC  
                                             l2526 1976                                               l2542 195C  
                                             l2534 1936                                               l2550 1922  
                                             l2710 15FE                                               l2702 15B8  
                                             l3088 1242                                               l2616 18EE  
                                             l2632 12C0                                               l2640 133C  
                                             l2624 129A                                               l2528 197E  
                                             l2536 193A                                               l2552 192A  
                                             l2704 15CA                                               l2800 171C  
                                             l2560 14FE                                               l2618 18F6  
                                             l2634 1302                                               l2642 1372  
                                             l2626 129A                                               l2538 194C  
                                             l2554 1932                                               l2546 190C  
                                             l2706 15D2                                               l2714 1614  
                                             l2802 1728                                               l2570 155C  
                                             l2562 1510                                               l2580 1768  
                                             l2660 1178                                               l2732 1698  
                                             l2724 1656                                               l2636 1306  
                                             l2628 12AC                                               l2548 1910  
                                             l2708 15E8                                               l2716 1652  
                                             l2804 1734                                               l2572 15B4  
                                             l2564 1518                                               l2670 11E0  
                                             l2662 118A                                               l2734 16D6  
                                             l2726 165A                                               l2494 1012  
                                             l2806 1740                                               l2750 1474  
                                             l2742 1438                                               l2566 153A  
                                             l2558 14FA                                               l2584 1782  
                                             l2576 1752                                               l2672 121E  
                                             l2664 119A                                               l2680 1296  
                                             l2728 166C                                               l2496 1016  
                                             l2808 174E                                               l2760 14E8  
                                             l2744 1438                                               l2594 17C4  
                                             l2586 17C0                                               l2578 1756  
                                             l2674 1222                                               l2666 119E  
                                             l2658 1178                                               l2498 1028  
                                             l2754 149A                                               l2762 14F6  
                                             l2746 144A                                               l2770 1388  
                                             l2596 17C8                                               l2668 11DC  
                                             l2756 14D4                                               l2748 1452  
                                             l2780 1412                                               l2772 1390  
                                             l2598 17DA                                               l2678 1258  
                                             l2790 16DA                                               l2758 14D6  
                                             l2782 1414                                               l2774 13B2  
                                             l2766 1376                                               l2792 16DA  
                                             l2784 1426                                               l2768 1376  
                                             l2794 16EC                                               l2778 13D8  
                                             l2786 1434                                               l2796 16F4  
                                             l2798 1710                                               u1200 1052  
                                             u1201 104E                                               u1210 1070  
                                             u1211 106C                                               u1300 153A  
                                             u1301 1536                                               u1310 1558  
                                             u1311 1554                                               u1240 114A  
                                             u1224 1094                                               u1400 144A  
                                             u1241 1144                                               u1225 1090  
                                             u1401 1446                                               u1330 1768  
                                             u1250 114C                                               u1234 10F6  
                                             u1410 1474                                               u1331 1764  
                                             u1235 10F2                                               u1411 1470  
                                             u1340 17DA                                               u1260 1976  
                                             u1420 1492                                               u1324 157C  
                                             u1341 17D6                                               u1261 1972  
                                             u1421 148E                                               u1325 1578  
                                             _LATA 000F89                                               u1190 1028  
                                             u1350 18EE                                               u1270 194C  
                                             _LATB 000F8A                                               u1191 1024  
                                             u1351 18EA                                               u1271 1948  
                                             _LATC 000F8B                                               u1360 12AC  
                                             u1280 1922                                               u1440 1388  
                                             _LATD 000F8C                                               u1361 12A8  
                                             u1281 191E                                               u1441 1384  
                                             _LATE 000F8D                                               u1370 118A  
                                             u1290 1510                                               u1450 13B2  
                                             u1371 1186                                               u1435 14E6  
                                             u1291 150C                                               u1451 13AE  
                                             u1380 15CA                                               u1460 13D0  
                                             u1381 15C6                                               u1437 14E8  
                                             u1461 13CC                                               u1390 166C  
                                             u1391 1668                                               u1480 16EC  
                                             u1481 16E8                                               u1475 1424  
                                             u1477 1426                                               u1657 1870  
                                             u1667 1892                                               _ZERO 007EC2  
                                             _led1 0026                                               _led2 0025  
                                             _main 1836                                               _pin1 0048  
                                             _pin2 0047                                               fsr2h 000FDA  
                                             indf2 000FDF                                               fsr1l 000FE1  
                                             fsr2l 000FD9                           ?_gpio_pin_direction_init 0029  
                                             btemp 0049                                               prodl 000FF3  
                                             start 003E                                        led_init@led 0032  
                                      led_init@ret 0035                                       ___param_bank 000000  
                           ?_gpio_pin_toggle_logic 0029                          ?_Interrupt_INTx_Edge_Init 0029  
                                            ?_main 0027                                              i1l636 0032  
                                            i2l626 19C2                                              i2l629 19D2  
                                            _PORTA 000F80                                              _PORTB 000F81  
                                            _PORTC 000F82                                              _PORTD 000F83  
                                            _PORTE 000F84                                              _TRISA 000F92  
                                            _TRISB 000F93                                              _TRISC 000F94  
                                            _TRISD 000F95                                              _TRISE 000F96  
                         Interrupt_INTx_Enable@ret 002D                                              tablat 000FF5  
                                            ttemp5 004A                                              ttemp6 004D  
                                            ttemp7 0051                                              status 000FD8  
                                            wtemp8 004A                             _Interrupt_INTx_Disable 1752  
                                  __initialization 18A6                                       __end_of_main 18A6  
                     Interrupt_INTx_Enable@Int_Obj 0029                                      _lat_registers 0001  
                                           ??_main 0038                                      __activetblptr 000003  
                                 led_turn_on@F2884 0045                                             i1l2440 0022  
                                           i1l2442 0030                                             i2l2430 19B2  
                                           i2l2432 19C0                                             i2l2436 19D0  
                       ?_Interrupt_INTx_Clear_Flag 0029                   gpio_pin_toggle_logic@_pin_config 0029  
                         gpio_pin_toggle_logic@ret 0030                                   __end_of_led_init 14FA  
                   Set_INT1_Interrupt_Handller@ret 002B                 Set_INTx_Interrupt_Handller@Int_Obj 002C  
                                           clear_0 18CC                                             isa$std 000001  
                    __end_of_Interrupt_INTx_Enable 16DA                                      led_init@F2879 0046  
                                     __pdataCOMRAM 0001                                       __mediumconst 0000  
                                           tblptrh 000FF7                                             tblptrl 000FF6  
                                           tblptru 000FF8                       ?_Set_INT0_Interrupt_Handller 0029  
                              led_toggle_state@led 0031                                led_toggle_state@ret 0034  
                                       __accesstop 0080                            __end_of__initialization 18D2  
                     ?_Set_INTx_Interrupt_Handller 002C                                      ___rparam_used 000001  
                __end_of_Interrupt_INTx_Clear_Flag 1836                            _Interrupt_INTx_Pin_Init 18DC  
                                   __pcstackCOMRAM 0027                                  Relay_TurnOn@F2878 0041  
                      __end_of_Interrupt_INTx_Init 1752                      ??_Set_INT0_Interrupt_Handller 002B  
                                 _led_toggle_state 1376                                      _button_Values 1001  
                 __end_of_Interrupt_INTx_Edge_Init 129A                            ??_gpio_pin_toggle_logic 002B  
               gpio_pin_direction_init@_pin_config 0029                      ??_Set_INTx_Interrupt_Handller 002E  
                      __end_of_InterruptMangerHigh 19D6                                  led_turn_off@F2889 0044  
                          _Int0_Interrupt_Handller 003E                __end_of_Set_INT1_Interrupt_Handller 1960  
                      _Set_INT1_Interrupt_Handller 1936                                          ?_led_init 0032  
                          ?_Interrupt_INTx_Disable 0029                                     _tris_registers 0015  
                        ??_Interrupt_INTx_Pin_Init 0034                                            __Hparam 0000  
                                          __Lparam 0000                                       __psmallconst 1000  
                                          __pcinit 18A6                     Set_INTx_Interrupt_Handller@ret 0030  
                                          __ramtop 1000                                            __ptext0 1836  
                                          __ptext1 1376                                            __ptext2 14FA  
                                          __ptext3 1438                                            __ptext4 16DA  
                                          __ptext5 15B8                                            __ptext6 190C  
                                          __ptext7 1936                                            __ptext8 1960  
                                          __ptext9 129A                                    Relay_init@F2873 0042  
                   __end_of_Interrupt_INTx_Disable 17C4                                     __pintcode_body 19B0  
                                       ??_led_init 0034                               end_of_initialization 18D2  
                                          int_func 19B0                        ??_Interrupt_INTx_Clear_Flag 002B  
                                          postdec1 000FE5                                            postdec2 000FDD  
                         _Interrupt_INTx_Edge_Init 1178                                            postinc0 000FEE  
                                          postinc2 000FDE                Interrupt_INTx_Priority_Init@Int_Obj 0029  
                    Interrupt_INTx_Disable@Int_Obj 0029                     Set_INT0_Interrupt_Handller@ret 002B  
                           Interrupt_INTx_Init@ret 0037                           __end_of_led_toggle_state 1438  
                          _gpio_pin_direction_init 1012               __end_of_Interrupt_INTx_Priority_Init 1376  
                     _Interrupt_INTx_Priority_Init 129A                                      __pidataCOMRAM 198A  
                        _Interrupt_INTx_Clear_Flag 17C4                              _Interrupt_INTx_Enable 1656  
                              start_initialization 18A6                       ?_Set_INT2_Interrupt_Handller 0029  
                    __end_of_gpio_pin_toggle_logic 15B8                                 Relay_TurnOff@F2883 0040  
                    ?_Interrupt_INTx_Priority_Init 0029                                        __pbssCOMRAM 003A  
                    ??_Set_INT2_Interrupt_Handller 002B                          ??_gpio_pin_direction_init 002B  
                       __end_of_InterruptMangerLow 003E                                          __pintcode 0008  
                  Interrupt_INTx_Edge_Init@Int_Obj 0029                                        __pintcodelo 0018  
                           ?_Interrupt_INTx_Enable 0029                                        __smallconst 1000  
                          _Int2_Interrupt_Handller 003A                __end_of_Set_INT0_Interrupt_Handller 198A  
                      _Set_INT0_Interrupt_Handller 1960                     Interrupt_INTx_Pin_Init@Int_Obj 0032  
              __end_of_Set_INTx_Interrupt_Handller 1656                        _Set_INTx_Interrupt_Handller 15B8  
                       ??_Interrupt_INTx_Edge_Init 002B                                           i1u118_20 0030  
                                         i1u118_21 002C                                           i2u116_40 19C0  
                                         i2u116_41 19BC                                           i2u117_40 19D0  
                                         i2u117_41 19CC                                           _RCONbits 000FD0  
                          led_toggle_state@Pin_obj 0035                    __end_of_gpio_pin_direction_init 1178  
                   ??_Interrupt_INTx_Priority_Init 002B                                        _INTCON2bits 000FF1  
                                      _INTCON3bits 000FF0                                          copy_data0 18BA  
                         ?_Interrupt_INTx_Pin_Init 0032                                    _ISR_BUTTON_INT0 000000  
                       Interrupt_INTx_Init@Int_Obj 0035                                           __Hrparam 0000  
                                         __Lrparam 0000                   Interrupt_INTx_Clear_Flag@Int_Obj 0029  
                        Interrupt_INTx_Disable@ret 002D                                  ?_led_toggle_state 0031  
                               ??_led_toggle_state 0033                                           __ptext10 18DC  
                                         __ptext11 1012                                           __ptext12 1656  
                                         __ptext13 1178                                           __ptext14 1752  
                                         __ptext15 17C4                              __end_of_button_Values 1011  
                                         _led_init 1438                                           isa$xinst 000000  
Set_INT2_Interrupt_Handller@Int_Interrupt_Handller 0029  Set_INT1_Interrupt_Handller@Int_Interrupt_Handller 0029  
Set_INT0_Interrupt_Handller@Int_Interrupt_Handller 0029                                           int$flags 0049  
                   Set_INT2_Interrupt_Handller@ret 002B                           ??_Interrupt_INTx_Disable 002B  
                              _Interrupt_INTx_Init 16DA                                         _INTCONbits 000FF2  
                  __end_of_Interrupt_INTx_Pin_Init 190C                       ?_Set_INT1_Interrupt_Handller 0029  
                                         intlevel1 0000                                           intlevel2 0000  
                     Interrupt_INTx_Clear_Flag@ret 002D                              led_toggle_state@F2894 0043  
                              _InterruptMangerHigh 0008                               ?_Interrupt_INTx_Init 0035  
                       Interrupt_INTx_Pin_Init@ret 0034                              _gpio_pin_toggle_logic 14FA  
                          ??_Interrupt_INTx_Enable 002B                               ?_InterruptMangerHigh 0027  
                                  led_init@Pin_obj 0036                                     _port_registers 000B  
                               _InterruptMangerLow 0018                         gpio_pin_direction_init@ret 0031  
                    ??_Set_INT1_Interrupt_Handller 002B                                ?_InterruptMangerLow 0027  
                            ??_Interrupt_INTx_Init 0037                                     _INT0_INTERRUPT 001F  
